---
triple:          'arm64-apple-darwin'
binary-path:     'bin/fuzzer-ubsan'
relocations:
  - { offset: 0x1361, size: 0x8, addend: 0x0, symName: __ZN6fuzzer18MutationDispatcher9CrossOverEPKhmS2_mPhm, symObjAddr: 0x0, symBinAddr: 0x1000012A4, symSize: 0x1A4 }
  - { offset: 0x7847, size: 0x8, addend: 0x0, symName: __ZN6fuzzer18MutationDispatcher9CrossOverEPKhmS2_mPhm, symObjAddr: 0x0, symBinAddr: 0x1000012A4, symSize: 0x1A4 }
  - { offset: 0x9CD9, size: 0x8, addend: 0x0, symName: __ZN6fuzzer13BlockCoverage14AppendCoverageERKNSt3__112basic_stringIcNS1_11char_traitsIcEENS1_9allocatorIcEEEE, symObjAddr: 0x0, symBinAddr: 0x100001448, symSize: 0x1E0 }
  - { offset: 0x9CFF, size: 0x8, addend: 0x0, symName: __ZN6fuzzer15CollectDataFlowERKNSt3__112basic_stringIcNS0_11char_traitsIcEENS0_9allocatorIcEEEES8_RKNS0_6vectorINS_9SizedFileENS4_ISA_EEEE, symObjAddr: 0x25C4, symBinAddr: 0x100003A0C, symSize: 0x54C }
  - { offset: 0x9D2A, size: 0x8, addend: 0x0, symName: __ZZN6fuzzer15CollectDataFlowERKNSt3__112basic_stringIcNS0_11char_traitsIcEENS0_9allocatorIcEEEES8_RKNS0_6vectorINS_9SizedFileENS4_ISA_EEEEE8DFSanEnv, symObjAddr: 0x5C7E, symBinAddr: 0x1000440F0, symSize: 0x0 }
  - { offset: 0xB9C8, size: 0x8, addend: 0x0, symName: __ZNK6fuzzer7Command8toStringEv, symObjAddr: 0x2B10, symBinAddr: 0x100003F58, symSize: 0x3F8 }
  - { offset: 0xFC04, size: 0x8, addend: 0x0, symName: __ZNSt3__119piecewise_constructE, symObjAddr: 0x5CA1, symBinAddr: 0x10003C220, symSize: 0x0 }
  - { offset: 0x1A639, size: 0x8, addend: 0x0, symName: __ZNSt3__124__put_character_sequenceB8nn210108IcNS_11char_traitsIcEEEERNS_13basic_ostreamIT_T0_EES7_PKS4_m, symObjAddr: 0x33D8, symBinAddr: 0x100004820, symSize: 0x124 }
  - { offset: 0x26C6E, size: 0x8, addend: 0x0, symName: __ZNSt3__17getlineB8nn210108IcNS_11char_traitsIcEENS_9allocatorIcEEEERNS_13basic_istreamIT_T0_EES9_RNS_12basic_stringIS6_S7_T1_EES6_, symObjAddr: 0x8E8, symBinAddr: 0x100001D30, symSize: 0x2CC }
  - { offset: 0x2A5EA, size: 0x8, addend: 0x0, symName: __ZNSt3__120__throw_length_errorB8nn210108EPKc, symObjAddr: 0x2F1C, symBinAddr: 0x100004364, symSize: 0x1C }
  - { offset: 0x2A618, size: 0x8, addend: 0x0, symName: __ZSt28__throw_bad_array_new_lengthB8nn210108v, symObjAddr: 0x2F38, symBinAddr: 0x100004380, symSize: 0x14 }
  - { offset: 0x2AFDA, size: 0x8, addend: 0x0, symName: __ZNSt3__116__pad_and_outputB8nn210108IcNS_11char_traitsIcEEEENS_19ostreambuf_iteratorIT_T0_EES6_PKS4_S8_S8_RNS_8ios_baseES4_, symObjAddr: 0x34FC, symBinAddr: 0x100004944, symSize: 0x22C }
  - { offset: 0x2B519, size: 0x8, addend: 0x0, symName: __ZNSt3__112basic_stringIcNS_11char_traitsIcEENS_9allocatorIcEEE20__throw_length_errorB8nn210108Ev, symObjAddr: 0x3728, symBinAddr: 0x100004B70, symSize: 0x14 }
  - { offset: 0x2B5D2, size: 0x8, addend: 0x0, symName: __ZNSt3__120__throw_out_of_rangeB8nn210108EPKc, symObjAddr: 0x3750, symBinAddr: 0x100004B98, symSize: 0x1C }
  - { offset: 0x2B600, size: 0x8, addend: 0x0, symName: __ZNSt3__112basic_stringIcNS_11char_traitsIcEENS_9allocatorIcEEE25__init_copy_ctor_externalEPKcm, symObjAddr: 0x376C, symBinAddr: 0x100004BB4, symSize: 0x8C }
  - { offset: 0x2D258, size: 0x8, addend: 0x0, symName: __ZSt28__throw_bad_array_new_lengthB8nn210108v, symObjAddr: 0x2F38, symBinAddr: 0x100004380, symSize: 0x14 }
  - { offset: 0x2D276, size: 0x8, addend: 0x0, symName: __ZNSt3__16vectorINS_12basic_stringIcNS_11char_traitsIcEENS_9allocatorIcEEEENS4_IS6_EEE6insertENS_11__wrap_iterIPKS6_EERSA_, symObjAddr: 0x2F4C, symBinAddr: 0x100004394, symSize: 0x260 }
  - { offset: 0x2EE09, size: 0x8, addend: 0x0, symName: __ZN6fuzzer13BlockCoverage14AppendCoverageERKNSt3__112basic_stringIcNS1_11char_traitsIcEENS1_9allocatorIcEEEE, symObjAddr: 0x0, symBinAddr: 0x100001448, symSize: 0x1E0 }
  - { offset: 0x2F158, size: 0x8, addend: 0x0, symName: __ZN6fuzzer13BlockCoverage14AppendCoverageERNSt3__113basic_istreamIcNS1_11char_traitsIcEEEE, symObjAddr: 0x1E0, symBinAddr: 0x100001628, symSize: 0x708 }
  - { offset: 0x305A0, size: 0x8, addend: 0x0, symName: __ZNSt3__17getlineB8nn210108IcNS_11char_traitsIcEENS_9allocatorIcEEEERNS_13basic_istreamIT_T0_EES9_RNS_12basic_stringIS6_S7_T1_EES6_, symObjAddr: 0x8E8, symBinAddr: 0x100001D30, symSize: 0x2CC }
  - { offset: 0x31159, size: 0x8, addend: 0x0, symName: __ZNSt3__112__hash_tableImNS_4hashImEENS_8equal_toImEENS_9allocatorImEEE25__emplace_unique_key_argsImJRKmEEENS_4pairINS_15__hash_iteratorIPNS_11__hash_nodeImPvEEEEbEERKT_DpOT0_, symObjAddr: 0x39B8, symBinAddr: 0x100004E00, symSize: 0x320 }
  - { offset: 0x316B1, size: 0x8, addend: 0x0, symName: __ZNSt3__112__hash_tableINS_17__hash_value_typeImNS_6vectorIjNS_9allocatorIjEEEEEENS_22__unordered_map_hasherImNS_4pairIKmS5_EENS_4hashImEENS_8equal_toImEELb1EEENS_21__unordered_map_equalImSA_SE_SC_Lb1EEENS3_ISA_EEE25__emplace_unique_key_argsImJSA_EEENS8_INS_15__hash_iteratorIPNS_11__hash_nodeIS6_PvEEEEbEERKT_DpOT0_, symObjAddr: 0x3EB8, symBinAddr: 0x100005300, symSize: 0x338 }
  - { offset: 0x31CEE, size: 0x8, addend: 0x0, symName: __ZNSt3__16vectorIjNS_9allocatorIjEEE20__throw_length_errorB8nn210108Ev, symObjAddr: 0x3EA4, symBinAddr: 0x1000052EC, symSize: 0x14 }
  - { offset: 0x31D06, size: 0x8, addend: 0x0, symName: __ZNSt3__112__hash_tableINS_17__hash_value_typeImNS_6vectorIjNS_9allocatorIjEEEEEENS_22__unordered_map_hasherImNS_4pairIKmS5_EENS_4hashImEENS_8equal_toImEELb1EEENS_21__unordered_map_equalImSA_SE_SC_Lb1EEENS3_ISA_EEE25__emplace_unique_key_argsImJSA_EEENS8_INS_15__hash_iteratorIPNS_11__hash_nodeIS6_PvEEEEbEERKT_DpOT0_, symObjAddr: 0x3EB8, symBinAddr: 0x100005300, symSize: 0x338 }
  - { offset: 0x31D11, size: 0x8, addend: 0x0, symName: __ZNSt3__112basic_stringIcNS_11char_traitsIcEENS_9allocatorIcEEE20__throw_length_errorB8nn210108Ev, symObjAddr: 0x3728, symBinAddr: 0x100004B70, symSize: 0x14 }
  - { offset: 0x31D29, size: 0x8, addend: 0x0, symName: __ZNSt3__112basic_stringIcNS_11char_traitsIcEENS_9allocatorIcEEE20__throw_out_of_rangeB8nn210108Ev, symObjAddr: 0x373C, symBinAddr: 0x100004B84, symSize: 0x14 }
  - { offset: 0x31F4A, size: 0x8, addend: 0x0, symName: __ZNSt3__112basic_stringIcNS_11char_traitsIcEENS_9allocatorIcEEE6appendB8nn210108IPKcTnNS_9enable_ifIXsr31__has_forward_iterator_categoryIT_EE5valueEiE4typeELi0EEERS5_SA_SA_, symObjAddr: 0x37F8, symBinAddr: 0x100004C40, symSize: 0x1C0 }
  - { offset: 0x326DA, size: 0x8, addend: 0x0, symName: __ZNSt3__112__hash_tableImNS_4hashImEENS_8equal_toImEENS_9allocatorImEEE25__emplace_unique_key_argsImJRKmEEENS_4pairINS_15__hash_iteratorIPNS_11__hash_nodeImPvEEEEbEERKT_DpOT0_, symObjAddr: 0x39B8, symBinAddr: 0x100004E00, symSize: 0x320 }
  - { offset: 0x32C1A, size: 0x8, addend: 0x0, symName: __ZNK6fuzzer13BlockCoverage15FunctionWeightsEm, symObjAddr: 0xBB4, symBinAddr: 0x100001FFC, symSize: 0x378 }
  - { offset: 0x3345F, size: 0x8, addend: 0x0, symName: __ZN6fuzzer13DataFlowTrace12ReadCoverageERKNSt3__112basic_stringIcNS1_11char_traitsIcEENS1_9allocatorIcEEEE, symObjAddr: 0xF2C, symBinAddr: 0x100002374, symSize: 0x274 }
  - { offset: 0x3346A, size: 0x8, addend: 0x0, symName: __ZNSt3__16vectorIdNS_9allocatorIdEEE20__throw_length_errorB8nn210108Ev, symObjAddr: 0x43BC, symBinAddr: 0x100005804, symSize: 0x14 }
  - { offset: 0x33482, size: 0x8, addend: 0x0, symName: __ZNKSt3__112__hash_tableINS_12basic_stringIcNS_11char_traitsIcEENS_9allocatorIcEEEENS_4hashIS6_EENS_8equal_toIS6_EENS4_IS6_EEE4findIS6_EENS_21__hash_const_iteratorIPNS_11__hash_nodeIS6_PvEEEERKT_, symObjAddr: 0x43D0, symBinAddr: 0x100005818, symSize: 0x1DC }
  - { offset: 0x33CA7, size: 0x8, addend: 0x0, symName: __ZN6fuzzer13DataFlowTrace12ReadCoverageERKNSt3__112basic_stringIcNS1_11char_traitsIcEENS1_9allocatorIcEEEE, symObjAddr: 0xF2C, symBinAddr: 0x100002374, symSize: 0x274 }
  - { offset: 0x345C2, size: 0x8, addend: 0x0, symName: __ZN6fuzzer13DataFlowTrace4InitERKNSt3__112basic_stringIcNS1_11char_traitsIcEENS1_9allocatorIcEEEEPS7_RNS1_6vectorINS_9SizedFileENS5_ISC_EEEERNS_6RandomE, symObjAddr: 0x11A0, symBinAddr: 0x1000025E8, symSize: 0x1238 }
  - { offset: 0x345E9, size: 0x8, addend: 0x0, symName: __ZNKSt3__112__hash_tableINS_12basic_stringIcNS_11char_traitsIcEENS_9allocatorIcEEEENS_4hashIS6_EENS_8equal_toIS6_EENS4_IS6_EEE4findIS6_EENS_21__hash_const_iteratorIPNS_11__hash_nodeIS6_PvEEEERKT_, symObjAddr: 0x43D0, symBinAddr: 0x100005818, symSize: 0x1DC }
  - { offset: 0x34964, size: 0x8, addend: 0x0, symName: __ZNSt3__112basic_stringIcNS_11char_traitsIcEENS_9allocatorIcEEE20__throw_out_of_rangeB8nn210108Ev, symObjAddr: 0x373C, symBinAddr: 0x100004B84, symSize: 0x14 }
  - { offset: 0x3497C, size: 0x8, addend: 0x0, symName: __ZNSt3__120__throw_out_of_rangeB8nn210108EPKc, symObjAddr: 0x3750, symBinAddr: 0x100004B98, symSize: 0x1C }
  - { offset: 0x35838, size: 0x8, addend: 0x0, symName: __ZN6fuzzer13DataFlowTrace4InitERKNSt3__112basic_stringIcNS1_11char_traitsIcEENS1_9allocatorIcEEEEPS7_RNS1_6vectorINS_9SizedFileENS5_ISC_EEEERNS_6RandomE, symObjAddr: 0x11A0, symBinAddr: 0x1000025E8, symSize: 0x1238 }
  - { offset: 0x3966D, size: 0x8, addend: 0x0, symName: __ZN6fuzzer13BlockCoverage24GetNumberOfCoveredBlocksEm, symObjAddr: 0x23D8, symBinAddr: 0x100003820, symSize: 0x1EC }
  - { offset: 0x39682, size: 0x8, addend: 0x0, symName: __ZNSt3__112__hash_tableINS_12basic_stringIcNS_11char_traitsIcEENS_9allocatorIcEEEENS_4hashIS6_EENS_8equal_toIS6_EENS4_IS6_EEE25__emplace_unique_key_argsIS6_JS6_EEENS_4pairINS_15__hash_iteratorIPNS_11__hash_nodeIS6_PvEEEEbEERKT_DpOT0_, symObjAddr: 0x45AC, symBinAddr: 0x1000059F4, symSize: 0x3C0 }
  - { offset: 0x39E36, size: 0x8, addend: 0x0, symName: __ZNSt3__112basic_stringIcNS_11char_traitsIcEENS_9allocatorIcEEE25__init_copy_ctor_externalEPKcm, symObjAddr: 0x376C, symBinAddr: 0x100004BB4, symSize: 0x8C }
  - { offset: 0x39FE6, size: 0x8, addend: 0x0, symName: __ZNSt3__112basic_stringIcNS_11char_traitsIcEENS_9allocatorIcEEE6appendB8nn210108IPKcTnNS_9enable_ifIXsr31__has_forward_iterator_categoryIT_EE5valueEiE4typeELi0EEERS5_SA_SA_, symObjAddr: 0x37F8, symBinAddr: 0x100004C40, symSize: 0x1C0 }
  - { offset: 0x39FF1, size: 0x8, addend: 0x0, symName: __ZNSt3__131piecewise_constant_distributionIdE10param_typeC2INS_11__wrap_iterIPdEES6_EET_S7_T0_, symObjAddr: 0x4B38, symBinAddr: 0x100005F80, symSize: 0x1A4 }
  - { offset: 0x3A7A9, size: 0x8, addend: 0x0, symName: __ZNSt3__16vectorIdNS_9allocatorIdEEE6assignEmRKd, symObjAddr: 0x4CDC, symBinAddr: 0x100006124, symSize: 0x1EC }
  - { offset: 0x3A7C6, size: 0x8, addend: 0x0, symName: __ZN6fuzzer13BlockCoverage24GetNumberOfCoveredBlocksEm, symObjAddr: 0x23D8, symBinAddr: 0x100003820, symSize: 0x1EC }
  - { offset: 0x3A82D, size: 0x8, addend: 0x0, symName: __ZN6fuzzer13BlockCoverage24GetNumberOfCoveredBlocksEm, symObjAddr: 0x23D8, symBinAddr: 0x100003820, symSize: 0x1EC }
  - { offset: 0x3A849, size: 0x8, addend: 0x0, symName: __ZN6fuzzer13BlockCoverage24GetNumberOfCoveredBlocksEm, symObjAddr: 0x23D8, symBinAddr: 0x100003820, symSize: 0x1EC }
  - { offset: 0x3A86F, size: 0x8, addend: 0x0, symName: __ZN6fuzzer13BlockCoverage24GetNumberOfCoveredBlocksEm, symObjAddr: 0x23D8, symBinAddr: 0x100003820, symSize: 0x1EC }
  - { offset: 0x3A88C, size: 0x8, addend: 0x0, symName: __ZN6fuzzer13BlockCoverage24GetNumberOfCoveredBlocksEm, symObjAddr: 0x23D8, symBinAddr: 0x100003820, symSize: 0x1EC }
  - { offset: 0x3AA0F, size: 0x8, addend: 0x0, symName: __ZNSt3__112__hash_tableINS_17__hash_value_typeINS_12basic_stringIcNS_11char_traitsIcEENS_9allocatorIcEEEENS_6vectorIhNS5_IhEEEEEENS_22__unordered_map_hasherIS7_NS_4pairIKS7_SA_EENS_4hashIS7_EENS_8equal_toIS7_EELb1EEENS_21__unordered_map_equalIS7_SF_SJ_SH_Lb1EEENS5_ISF_EEE25__emplace_unique_key_argsIS7_JRKNS_21piecewise_construct_tENS_5tupleIJRSE_EEENST_IJEEEEEENSD_INS_15__hash_iteratorIPNS_11__hash_nodeISB_PvEEEEbEERKT_DpOT0_, symObjAddr: 0x53B0, symBinAddr: 0x1000067F8, symSize: 0x3DC }
  - { offset: 0x3B2E3, size: 0x8, addend: 0x0, symName: __ZNSt3__16vectorINS_12basic_stringIcNS_11char_traitsIcEENS_9allocatorIcEEEENS4_IS6_EEE20__throw_length_errorB8nn210108Ev, symObjAddr: 0x33C4, symBinAddr: 0x10000480C, symSize: 0x14 }
  - { offset: 0x3B2FB, size: 0x8, addend: 0x0, symName: __ZNSt3__124__put_character_sequenceB8nn210108IcNS_11char_traitsIcEEEERNS_13basic_ostreamIT_T0_EES7_PKS4_m, symObjAddr: 0x33D8, symBinAddr: 0x100004820, symSize: 0x124 }
  - { offset: 0x3B306, size: 0x8, addend: 0x0, symName: __ZNSt3__16vectorIhNS_9allocatorIhEEE20__throw_length_errorB8nn210108Ev, symObjAddr: 0x2F08, symBinAddr: 0x100004350, symSize: 0x14 }
  - { offset: 0x3B31E, size: 0x8, addend: 0x0, symName: __ZNSt3__120__throw_length_errorB8nn210108EPKc, symObjAddr: 0x2F1C, symBinAddr: 0x100004364, symSize: 0x1C }
  - { offset: 0x3B4C9, size: 0x8, addend: 0x0, symName: __ZNSt3__16vectorINS_12basic_stringIcNS_11char_traitsIcEENS_9allocatorIcEEEENS4_IS6_EEE6insertENS_11__wrap_iterIPKS6_EERSA_, symObjAddr: 0x2F4C, symBinAddr: 0x100004394, symSize: 0x260 }
  - { offset: 0x3BD73, size: 0x8, addend: 0x0, symName: __ZNSt3__114__split_bufferINS_12basic_stringIcNS_11char_traitsIcEENS_9allocatorIcEEEERNS4_IS6_EEE12emplace_backIJRKS6_EEEvDpOT_, symObjAddr: 0x31AC, symBinAddr: 0x1000045F4, symSize: 0x218 }
  - { offset: 0x3BD7E, size: 0x8, addend: 0x0, symName: __ZNK6fuzzer7Command8toStringEv, symObjAddr: 0x2B10, symBinAddr: 0x100003F58, symSize: 0x3F8 }
  - { offset: 0x3CA77, size: 0x8, addend: 0x0, symName: __ZNSt3__16vectorIhNS_9allocatorIhEEE20__throw_length_errorB8nn210108Ev, symObjAddr: 0x2F08, symBinAddr: 0x100004350, symSize: 0x14 }
  - { offset: 0x3D032, size: 0x8, addend: 0x0, symName: __ZNSt3__114__split_bufferINS_12basic_stringIcNS_11char_traitsIcEENS_9allocatorIcEEEERNS4_IS6_EEE12emplace_backIJRKS6_EEEvDpOT_, symObjAddr: 0x31AC, symBinAddr: 0x1000045F4, symSize: 0x218 }
  - { offset: 0x3D84C, size: 0x8, addend: 0x0, symName: __ZNSt3__16vectorINS_12basic_stringIcNS_11char_traitsIcEENS_9allocatorIcEEEENS4_IS6_EEE20__throw_length_errorB8nn210108Ev, symObjAddr: 0x33C4, symBinAddr: 0x10000480C, symSize: 0x14 }
  - { offset: 0x3E0F2, size: 0x8, addend: 0x0, symName: __ZNSt3__112__hash_tableImNS_4hashImEENS_8equal_toImEENS_9allocatorImEEE11__do_rehashILb1EEEvm, symObjAddr: 0x3CD8, symBinAddr: 0x100005120, symSize: 0x1CC }
  - { offset: 0x3E47C, size: 0x8, addend: 0x0, symName: __ZNSt3__16vectorIjNS_9allocatorIjEEE20__throw_length_errorB8nn210108Ev, symObjAddr: 0x3EA4, symBinAddr: 0x1000052EC, symSize: 0x14 }
  - { offset: 0x3E7E0, size: 0x8, addend: 0x0, symName: __ZNSt3__112__hash_tableINS_17__hash_value_typeImNS_6vectorIjNS_9allocatorIjEEEEEENS_22__unordered_map_hasherImNS_4pairIKmS5_EENS_4hashImEENS_8equal_toImEELb1EEENS_21__unordered_map_equalImSA_SE_SC_Lb1EEENS3_ISA_EEE11__do_rehashILb1EEEvm, symObjAddr: 0x41F0, symBinAddr: 0x100005638, symSize: 0x1CC }
  - { offset: 0x3EB6A, size: 0x8, addend: 0x0, symName: __ZNSt3__16vectorIdNS_9allocatorIdEEE20__throw_length_errorB8nn210108Ev, symObjAddr: 0x43BC, symBinAddr: 0x100005804, symSize: 0x14 }
  - { offset: 0x3EF51, size: 0x8, addend: 0x0, symName: __ZNSt3__112__hash_tableINS_12basic_stringIcNS_11char_traitsIcEENS_9allocatorIcEEEENS_4hashIS6_EENS_8equal_toIS6_EENS4_IS6_EEE11__do_rehashILb1EEEvm, symObjAddr: 0x496C, symBinAddr: 0x100005DB4, symSize: 0x1CC }
  - { offset: 0x3F2DB, size: 0x8, addend: 0x0, symName: __ZNSt3__131piecewise_constant_distributionIdE10param_typeC2INS_11__wrap_iterIPdEES6_EET_S7_T0_, symObjAddr: 0x4B38, symBinAddr: 0x100005F80, symSize: 0x1A4 }
  - { offset: 0x3F785, size: 0x8, addend: 0x0, symName: __ZNSt3__16vectorIdNS_9allocatorIdEEE8__appendEm, symObjAddr: 0x5204, symBinAddr: 0x10000664C, symSize: 0x1AC }
  - { offset: 0x3FBBB, size: 0x8, addend: 0x0, symName: __ZNSt3__112__hash_tableINS_17__hash_value_typeINS_12basic_stringIcNS_11char_traitsIcEENS_9allocatorIcEEEENS_6vectorIhNS5_IhEEEEEENS_22__unordered_map_hasherIS7_NS_4pairIKS7_SA_EENS_4hashIS7_EENS_8equal_toIS7_EELb1EEENS_21__unordered_map_equalIS7_SF_SJ_SH_Lb1EEENS5_ISF_EEE25__emplace_unique_key_argsIS7_JRKNS_21piecewise_construct_tENS_5tupleIJRSE_EEENST_IJEEEEEENSD_INS_15__hash_iteratorIPNS_11__hash_nodeISB_PvEEEEbEERKT_DpOT0_, symObjAddr: 0x53B0, symBinAddr: 0x1000067F8, symSize: 0x3DC }
  - { offset: 0x3FBC6, size: 0x8, addend: 0x0, symName: __ZNSt3__16vectorIdNS_9allocatorIdEEE6assignEmRKd, symObjAddr: 0x4CDC, symBinAddr: 0x100006124, symSize: 0x1EC }
  - { offset: 0x400A2, size: 0x8, addend: 0x0, symName: __ZNSt3__16vectorIdNS_9allocatorIdEEE9push_backB8nn210108ERKd, symObjAddr: 0x4EC8, symBinAddr: 0x100006310, symSize: 0xF8 }
  - { offset: 0x400AD, size: 0x8, addend: 0x0, symName: __ZNSt3__16vectorIdNS_9allocatorIdEEE9push_backB8nn210108ERKd, symObjAddr: 0x4EC8, symBinAddr: 0x100006310, symSize: 0xF8 }
  - { offset: 0x404D2, size: 0x8, addend: 0x0, symName: __ZNSt3__131piecewise_constant_distributionIdE10param_type6__initEv, symObjAddr: 0x4FC0, symBinAddr: 0x100006408, symSize: 0x244 }
  - { offset: 0x404DD, size: 0x8, addend: 0x0, symName: __ZNSt3__131piecewise_constant_distributionIdE10param_type6__initEv, symObjAddr: 0x4FC0, symBinAddr: 0x100006408, symSize: 0x244 }
  - { offset: 0x40E9A, size: 0x8, addend: 0x0, symName: __ZNSt3__112__hash_tableINS_17__hash_value_typeINS_12basic_stringIcNS_11char_traitsIcEENS_9allocatorIcEEEENS_6vectorIhNS5_IhEEEEEENS_22__unordered_map_hasherIS7_NS_4pairIKS7_SA_EENS_4hashIS7_EENS_8equal_toIS7_EELb1EEENS_21__unordered_map_equalIS7_SF_SJ_SH_Lb1EEENS5_ISF_EEE11__do_rehashILb1EEEvm, symObjAddr: 0x578C, symBinAddr: 0x100006BD4, symSize: 0x1CC }
  - { offset: 0x43060, size: 0x8, addend: 0x0, symName: __ZN6fuzzerL2MuE, symObjAddr: 0x99A8, symBinAddr: 0x100044118, symSize: 0x0 }
  - { offset: 0x4307B, size: 0x8, addend: 0x0, symName: __ZN6fuzzer2EFE, symObjAddr: 0x148CD0, symBinAddr: 0x100044600, symSize: 0x0 }
  - { offset: 0x4319C, size: 0x8, addend: 0x0, symName: __MergedGlobals, symObjAddr: 0x148CD8, symBinAddr: 0x100078200, symSize: 0x0 }
  - { offset: 0x435C4, size: 0x8, addend: 0x0, symName: __MergedGlobals, symObjAddr: 0x148CD8, symBinAddr: 0x100078200, symSize: 0x0 }
  - { offset: 0x435E0, size: 0x8, addend: 0x0, symName: __MergedGlobals, symObjAddr: 0x148CD8, symBinAddr: 0x100078200, symSize: 0x0 }
  - { offset: 0x43609, size: 0x8, addend: 0x0, symName: __ZN6fuzzerL16FlagDescriptionsE, symObjAddr: 0xCA08, symBinAddr: 0x100040500, symSize: 0x0 }
  - { offset: 0x45123, size: 0x8, addend: 0x0, symName: __ZN6fuzzer17CloneArgsWithoutXERKNSt3__16vectorINS0_12basic_stringIcNS0_11char_traitsIcEENS0_9allocatorIcEEEENS5_IS7_EEEEPKcSD_, symObjAddr: 0x4, symBinAddr: 0x100006DA4, symSize: 0x244 }
  - { offset: 0x459B8, size: 0x8, addend: 0x0, symName: __ZN6fuzzer10RunOneTestEPNS_6FuzzerEPKcm, symObjAddr: 0x248, symBinAddr: 0x100006FE8, symSize: 0x160 }
  - { offset: 0x459C3, size: 0x8, addend: 0x0, symName: __ZN6fuzzer10RunOneTestEPNS_6FuzzerEPKcm, symObjAddr: 0x248, symBinAddr: 0x100006FE8, symSize: 0x160 }
  - { offset: 0x45FEE, size: 0x8, addend: 0x0, symName: __ZNSt3__112basic_stringIcNS_11char_traitsIcEENS_9allocatorIcEEEC1B8nn210108ILi0EEEPKc, symObjAddr: 0x3A8, symBinAddr: 0x100007148, symSize: 0xA8 }
  - { offset: 0x46018, size: 0x8, addend: 0x0, symName: __ZN6fuzzer17CleanseCrashInputERKNSt3__16vectorINS0_12basic_stringIcNS0_11char_traitsIcEENS0_9allocatorIcEEEENS5_IS7_EEEERKNS_14FuzzingOptionsE, symObjAddr: 0x450, symBinAddr: 0x1000071F0, symSize: 0x9D4 }
  - { offset: 0x480E9, size: 0x8, addend: 0x0, symName: __ZN6fuzzer7Command10removeFlagERKNSt3__112basic_stringIcNS1_11char_traitsIcEENS1_9allocatorIcEEEE, symObjAddr: 0xE24, symBinAddr: 0x100007BC4, symSize: 0x21C }
  - { offset: 0x4816B, size: 0x8, addend: 0x0, symName: __ZN6fuzzer18MinimizeCrashInputERKNSt3__16vectorINS0_12basic_stringIcNS0_11char_traitsIcEENS0_9allocatorIcEEEENS5_IS7_EEEERKNS_14FuzzingOptionsE, symObjAddr: 0x11F0, symBinAddr: 0x100007F90, symSize: 0xEEC }
  - { offset: 0x4C955, size: 0x8, addend: 0x0, symName: __ZN6fuzzer7Command7addFlagERKNSt3__112basic_stringIcNS1_11char_traitsIcEENS1_9allocatorIcEEEES9_, symObjAddr: 0x20DC, symBinAddr: 0x100008E7C, symSize: 0x1A8 }
  - { offset: 0x4C97A, size: 0x8, addend: 0x0, symName: __ZN6fuzzerL26GetDedupTokenFromCmdOutputERKNSt3__112basic_stringIcNS0_11char_traitsIcEENS0_9allocatorIcEEEE, symObjAddr: 0x267C, symBinAddr: 0x100009024, symSize: 0x240 }
  - { offset: 0x4D0C9, size: 0x8, addend: 0x0, symName: __ZN6fuzzer30MinimizeCrashInputInternalStepEPNS_6FuzzerEPNS_11InputCorpusE, symObjAddr: 0x28BC, symBinAddr: 0x100009264, symSize: 0xFC }
  - { offset: 0x4D0E9, size: 0x8, addend: 0x0, symName: __ZN6fuzzer30MinimizeCrashInputInternalStepEPNS_6FuzzerEPNS_11InputCorpusE, symObjAddr: 0x28BC, symBinAddr: 0x100009264, symSize: 0xFC }
  - { offset: 0x4D303, size: 0x8, addend: 0x0, symName: __ZN6fuzzer5MergeEPNS_6FuzzerERNS_14FuzzingOptionsERKNSt3__16vectorINS4_12basic_stringIcNS4_11char_traitsIcEENS4_9allocatorIcEEEENS9_ISB_EEEESF_PKc, symObjAddr: 0x29B8, symBinAddr: 0x100009360, symSize: 0x334 }
  - { offset: 0x4D314, size: 0x8, addend: 0x0, symName: __ZN6fuzzer5MergeEPNS_6FuzzerERNS_14FuzzingOptionsERKNSt3__16vectorINS4_12basic_stringIcNS4_11char_traitsIcEENS4_9allocatorIcEEEENS9_ISB_EEEESF_PKc, symObjAddr: 0x29B8, symBinAddr: 0x100009360, symSize: 0x334 }
  - { offset: 0x4E194, size: 0x8, addend: 0x0, symName: __ZN6fuzzer17AnalyzeDictionaryEPNS_6FuzzerERKNSt3__16vectorINS3_IhNS2_9allocatorIhEEEENS4_IS6_EEEERS8_, symObjAddr: 0x2CEC, symBinAddr: 0x100009694, symSize: 0x698 }
  - { offset: 0x4E1FE, size: 0x8, addend: 0x0, symName: __ZN6fuzzer17AnalyzeDictionaryEPNS_6FuzzerERKNSt3__16vectorINS3_IhNS2_9allocatorIhEEEENS4_IS6_EEEERS8_, symObjAddr: 0x2CEC, symBinAddr: 0x100009694, symSize: 0x698 }
  - { offset: 0x4F80A, size: 0x8, addend: 0x0, symName: '__ZNK6fuzzer7TracePC15CollectFeaturesIZNS_17AnalyzeDictionaryEPNS_6FuzzerERKNSt3__16vectorINS5_IhNS4_9allocatorIhEEEENS6_IS8_EEEERSA_E3$_0EEmT_', symObjAddr: 0x3384, symBinAddr: 0x100009D2C, symSize: 0x290 }
  - { offset: 0x4FF3A, size: 0x8, addend: 0x0, symName: '__ZN6fuzzer18ForEachNonZeroByteIZNKS_7TracePC15CollectFeaturesIZNS_17AnalyzeDictionaryEPNS_6FuzzerERKNSt3__16vectorINS6_IhNS5_9allocatorIhEEEENS7_IS9_EEEERSB_E3$_0EEmT_EUlmmhE_EEmPKhSJ_mSG_', symObjAddr: 0x8F70, symBinAddr: 0x10000F028, symSize: 0x3D8 }
  - { offset: 0x50445, size: 0x8, addend: 0x0, symName: __ZNSt3__16vectorImNS_9allocatorImEEE9push_backB8nn210108ERKm, symObjAddr: 0x9348, symBinAddr: 0x10000F400, symSize: 0xF8 }
  - { offset: 0x50477, size: 0x8, addend: 0x0, symName: '__ZN6fuzzer18ForEachNonZeroByteIZNKS_7TracePC15CollectFeaturesIZNS_17AnalyzeDictionaryEPNS_6FuzzerERKNSt3__16vectorINS6_IhNS5_9allocatorIhEEEENS7_IS9_EEEERSB_E3$_1EEmT_EUlmmhE_EEmPKhSJ_mSG_', symObjAddr: 0x9454, symBinAddr: 0x10000F50C, symSize: 0x3D8 }
  - { offset: 0x50982, size: 0x8, addend: 0x0, symName: __ZNSt3__16vectorINS_12basic_stringIcNS_11char_traitsIcEENS_9allocatorIcEEEENS4_IS6_EEE16__init_with_sizeB8nn210108IPPcSB_EEvT_T0_m, symObjAddr: 0x982C, symBinAddr: 0x10000F8E4, symSize: 0x118 }
  - { offset: 0x50996, size: 0x8, addend: 0x0, symName: __ZN6fuzzer14ParseSeedInutsEPKc, symObjAddr: 0x38A4, symBinAddr: 0x10000A24C, symSize: 0x49C }
  - { offset: 0x51DFF, size: 0x8, addend: 0x0, symName: __ZNSt3__16vectorINS_12basic_stringIcNS_11char_traitsIcEENS_9allocatorIcEEEENS4_IS6_EEE9push_backB8nn210108EOS6_, symObjAddr: 0x3D40, symBinAddr: 0x10000A6E8, symSize: 0x140 }
  - { offset: 0x520B9, size: 0x8, addend: 0x0, symName: __ZN6fuzzer12FuzzerDriverEPiPPPcPFiPKhmE, symObjAddr: 0x3F00, symBinAddr: 0x10000A8A8, symSize: 0x1F54 }
  - { offset: 0x583FB, size: 0x8, addend: 0x0, symName: __ZN6fuzzerL23ValidateDirectoryExistsERKNSt3__112basic_stringIcNS0_11char_traitsIcEENS0_9allocatorIcEEEEb, symObjAddr: 0x5E54, symBinAddr: 0x10000C7FC, symSize: 0xBC }
  - { offset: 0x58450, size: 0x8, addend: 0x0, symName: __ZN6fuzzerL23ValidateDirectoryExistsERKNSt3__112basic_stringIcNS0_11char_traitsIcEENS0_9allocatorIcEEEEb, symObjAddr: 0x5E54, symBinAddr: 0x10000C7FC, symSize: 0xBC }
  - { offset: 0x5864E, size: 0x8, addend: 0x0, symName: __ZN6fuzzerL11ReadCorporaERKNSt3__16vectorINS0_12basic_stringIcNS0_11char_traitsIcEENS0_9allocatorIcEEEENS5_IS7_EEEESB_, symObjAddr: 0x5F10, symBinAddr: 0x10000C8B8, symSize: 0x188 }
  - { offset: 0x586D9, size: 0x8, addend: 0x0, symName: __ZN6fuzzerL11ReadCorporaERKNSt3__16vectorINS0_12basic_stringIcNS0_11char_traitsIcEENS0_9allocatorIcEEEENS5_IS7_EEEESB_, symObjAddr: 0x5F10, symBinAddr: 0x10000C8B8, symSize: 0x188 }
  - { offset: 0x58D58, size: 0x8, addend: 0x0, symName: __ZN6fuzzerL11PulseThreadEv, symObjAddr: 0x6CF4, symBinAddr: 0x10000CE4C, symSize: 0x40 }
  - { offset: 0x58E57, size: 0x8, addend: 0x0, symName: __ZN6fuzzerL12WorkerThreadERKNS_7CommandEPNSt3__16atomicIjEEjPNS4_IbEE, symObjAddr: 0x6D34, symBinAddr: 0x10000CE8C, symSize: 0x2D0 }
  - { offset: 0x59B6A, size: 0x8, addend: 0x0, symName: __ZN6fuzzerL9RssThreadEPNS_6FuzzerEm, symObjAddr: 0x764C, symBinAddr: 0x10000D7A4, symSize: 0x34 }
  - { offset: 0x71F7A, size: 0x8, addend: 0x0, symName: __ZNSt3__111__introsortINS_17_ClassicAlgPolicyERNS_6__lessIvvEEPN6fuzzer9SizedFileELb0EEEvT1_S8_T0_NS_15iterator_traitsIS8_E15difference_typeEb, symObjAddr: 0x7A50, symBinAddr: 0x10000DB08, symSize: 0x528 }
  - { offset: 0x72EE3, size: 0x8, addend: 0x0, symName: __ZNSt3__111__sift_downB8nn210108INS_17_ClassicAlgPolicyERNS_6__lessIvvEEPN6fuzzer9SizedFileEEEvT1_OT0_NS_15iterator_traitsIS8_E15difference_typeES8_, symObjAddr: 0x8B50, symBinAddr: 0x10000EC08, symSize: 0x178 }
  - { offset: 0x733D4, size: 0x8, addend: 0x0, symName: __ZNSt3__131__partition_with_equals_on_leftB8nn210108INS_17_ClassicAlgPolicyEPN6fuzzer9SizedFileERNS_6__lessIvvEEEET0_S8_S8_T1_, symObjAddr: 0x8598, symBinAddr: 0x10000E650, symSize: 0x1AC }
  - { offset: 0x73B71, size: 0x8, addend: 0x0, symName: __ZNSt3__132__partition_with_equals_on_rightB8nn210108INS_17_ClassicAlgPolicyEPN6fuzzer9SizedFileERNS_6__lessIvvEEEENS_4pairIT0_bEES9_S9_T1_, symObjAddr: 0x8744, symBinAddr: 0x10000E7FC, symSize: 0x1B8 }
  - { offset: 0x74317, size: 0x8, addend: 0x0, symName: __ZNSt3__127__insertion_sort_incompleteB8nn210108INS_17_ClassicAlgPolicyERNS_6__lessIvvEEPN6fuzzer9SizedFileEEEbT1_S8_T0_, symObjAddr: 0x88FC, symBinAddr: 0x10000E9B4, symSize: 0x254 }
  - { offset: 0x78B2B, size: 0x8, addend: 0x0, symName: __ZNSt3__19remove_ifB8nn210108INS_11__wrap_iterIPNS_12basic_stringIcNS_11char_traitsIcEENS_9allocatorIcEEEEEEZN6fuzzer7Command10removeFlagERKS7_EUlSD_E_EET_SF_SF_T0_, symObjAddr: 0x6164, symBinAddr: 0x10000CAC8, symSize: 0x134 }
  - { offset: 0x791DE, size: 0x8, addend: 0x0, symName: __ZNSt3__16removeB8nn210108INS_11__wrap_iterIPNS_12basic_stringIcNS_11char_traitsIcEENS_9allocatorIcEEEEEES7_EET_SA_SA_RKT0_, symObjAddr: 0x62C8, symBinAddr: 0x10000CBFC, symSize: 0x140 }
  - { offset: 0x7EA8F, size: 0x8, addend: 0x0, symName: __ZNSt3__16removeB8nn210108INS_11__wrap_iterIPNS_12basic_stringIcNS_11char_traitsIcEENS_9allocatorIcEEEEEES7_EET_SA_SA_RKT0_, symObjAddr: 0x62C8, symBinAddr: 0x10000CBFC, symSize: 0x140 }
  - { offset: 0x7F450, size: 0x8, addend: 0x0, symName: __ZNSt3__114__thread_proxyB8nn210108INS_5tupleIJNS_10unique_ptrINS_15__thread_structENS_14default_deleteIS3_EEEEPFvvEEEEEEPvSA_, symObjAddr: 0x7004, symBinAddr: 0x10000D15C, symSize: 0x60 }
  - { offset: 0x7F9AD, size: 0x8, addend: 0x0, symName: __ZNSt3__114__thread_proxyB8nn210108INS_5tupleIJNS_10unique_ptrINS_15__thread_structENS_14default_deleteIS3_EEEEPFvRKN6fuzzer7CommandEPNS_6atomicIjEEjPNSB_IbEEENS_17reference_wrapperIS8_EESD_jSF_EEEEEPvSL_, symObjAddr: 0x72F8, symBinAddr: 0x10000D450, symSize: 0x6C }
  - { offset: 0x7FF46, size: 0x8, addend: 0x0, symName: __ZNSt3__114__thread_proxyB8nn210108INS_5tupleIJNS_10unique_ptrINS_15__thread_structENS_14default_deleteIS3_EEEEPFvPN6fuzzer6FuzzerEmES9_mEEEEEPvSD_, symObjAddr: 0x7680, symBinAddr: 0x10000D7D8, symSize: 0x64 }
  - { offset: 0x805E5, size: 0x8, addend: 0x0, symName: __ZNSt3__17__sort3B8nn210108INS_17_ClassicAlgPolicyERNS_6__lessIvvEEPN6fuzzer9SizedFileETnNS_9enable_ifIXnt21__use_branchless_sortIT0_T1_EEiE4typeELi0EEEbSA_SA_SA_S9_, symObjAddr: 0x7F78, symBinAddr: 0x10000E030, symSize: 0x298 }
  - { offset: 0x8128E, size: 0x8, addend: 0x0, symName: __ZNSt3__17__sort5B8nn210108INS_17_ClassicAlgPolicyERNS_6__lessIvvEEPN6fuzzer9SizedFileETnNS_9enable_ifIXnt21__use_branchless_sortIT0_T1_EEiE4typeELi0EEEvSA_SA_SA_SA_SA_S9_, symObjAddr: 0x83A8, symBinAddr: 0x10000E460, symSize: 0x1F0 }
  - { offset: 0x81EF8, size: 0x8, addend: 0x0, symName: __ZNSt3__17__sort4B8nn210108INS_17_ClassicAlgPolicyERNS_6__lessIvvEEPN6fuzzer9SizedFileETnNS_9enable_ifIXnt21__use_branchless_sortIT0_T1_EEiE4typeELi0EEEvSA_SA_SA_SA_S9_, symObjAddr: 0x8210, symBinAddr: 0x10000E2C8, symSize: 0x198 }
  - { offset: 0x8285B, size: 0x8, addend: 0x0, symName: __ZNSt3__110__pop_heapB8nn210108INS_17_ClassicAlgPolicyENS_6__lessIvvEEPN6fuzzer9SizedFileEEEvT1_S7_RT0_NS_15iterator_traitsIS7_E15difference_typeE, symObjAddr: 0x8CC8, symBinAddr: 0x10000ED80, symSize: 0x24C }
  - { offset: 0x84492, size: 0x8, addend: 0x0, symName: __ZNSt3__19remove_ifB8nn210108INS_11__wrap_iterIPNS_12basic_stringIcNS_11char_traitsIcEENS_9allocatorIcEEEEEEZN6fuzzer7Command10removeFlagERKS7_EUlSD_E_EET_SF_SF_T0_, symObjAddr: 0x6164, symBinAddr: 0x10000CAC8, symSize: 0x134 }
  - { offset: 0x862B5, size: 0x8, addend: 0x0, symName: ___libfuzzer_is_present, symObjAddr: 0x0, symBinAddr: 0x100006DA0, symSize: 0x4 }
  - { offset: 0x86716, size: 0x8, addend: 0x0, symName: __ZN6fuzzerL11PulseThreadEv, symObjAddr: 0x6CF4, symBinAddr: 0x10000CE4C, symSize: 0x40 }
  - { offset: 0x8696D, size: 0x8, addend: 0x0, symName: __ZNSt3__112basic_stringIcNS_11char_traitsIcEENS_9allocatorIcEEEC1B8nn210108ILi0EEEPKc, symObjAddr: 0x3A8, symBinAddr: 0x100007148, symSize: 0xA8 }
  - { offset: 0x86BCC, size: 0x8, addend: 0x0, symName: __ZN6fuzzer17CleanseCrashInputERKNSt3__16vectorINS0_12basic_stringIcNS0_11char_traitsIcEENS0_9allocatorIcEEEENS5_IS7_EEEERKNS_14FuzzingOptionsE, symObjAddr: 0x450, symBinAddr: 0x1000071F0, symSize: 0x9D4 }
  - { offset: 0x87514, size: 0x8, addend: 0x0, symName: __ZNSt3__16vectorINS_12basic_stringIcNS_11char_traitsIcEENS_9allocatorIcEEEENS4_IS6_EEE24__emplace_back_slow_pathIJRKS6_EEEPS6_DpOT_, symObjAddr: 0x78F8, symBinAddr: 0x10000D9C4, symSize: 0x130 }
  - { offset: 0x8751F, size: 0x8, addend: 0x0, symName: __ZN6fuzzer7Command10removeFlagERKNSt3__112basic_stringIcNS1_11char_traitsIcEENS1_9allocatorIcEEEE, symObjAddr: 0xE24, symBinAddr: 0x100007BC4, symSize: 0x21C }
  - { offset: 0x87DB9, size: 0x8, addend: 0x0, symName: __ZN6fuzzer7Command14removeArgumentERKNSt3__112basic_stringIcNS1_11char_traitsIcEENS1_9allocatorIcEEEE, symObjAddr: 0x1040, symBinAddr: 0x100007DE0, symSize: 0x1B0 }
  - { offset: 0x87DEF, size: 0x8, addend: 0x0, symName: __ZN6fuzzer7Command14removeArgumentERKNSt3__112basic_stringIcNS1_11char_traitsIcEENS1_9allocatorIcEEEE, symObjAddr: 0x1040, symBinAddr: 0x100007DE0, symSize: 0x1B0 }
  - { offset: 0x883E1, size: 0x8, addend: 0x0, symName: __ZN6fuzzer18MinimizeCrashInputERKNSt3__16vectorINS0_12basic_stringIcNS0_11char_traitsIcEENS0_9allocatorIcEEEENS5_IS7_EEEERKNS_14FuzzingOptionsE, symObjAddr: 0x11F0, symBinAddr: 0x100007F90, symSize: 0xEEC }
  - { offset: 0x8898F, size: 0x8, addend: 0x0, symName: __ZNSt3__16vectorINS_12basic_stringIcNS_11char_traitsIcEENS_9allocatorIcEEEENS4_IS6_EEE20__throw_out_of_rangeB8nn210108Ev, symObjAddr: 0x7A3C, symBinAddr: 0x10000DAF4, symSize: 0x14 }
  - { offset: 0x889A7, size: 0x8, addend: 0x0, symName: __ZNSt3__111__introsortINS_17_ClassicAlgPolicyERNS_6__lessIvvEEPN6fuzzer9SizedFileELb0EEEvT1_S8_T0_NS_15iterator_traitsIS8_E15difference_typeEb, symObjAddr: 0x7A50, symBinAddr: 0x10000DB08, symSize: 0x528 }
  - { offset: 0x88C17, size: 0x8, addend: 0x0, symName: __ZN6fuzzer7Command7addFlagERKNSt3__112basic_stringIcNS1_11char_traitsIcEENS1_9allocatorIcEEEES9_, symObjAddr: 0x20DC, symBinAddr: 0x100008E7C, symSize: 0x1A8 }
  - { offset: 0x89B2F, size: 0x8, addend: 0x0, symName: __ZN6fuzzerL26GetDedupTokenFromCmdOutputERKNSt3__112basic_stringIcNS0_11char_traitsIcEENS0_9allocatorIcEEEE, symObjAddr: 0x267C, symBinAddr: 0x100009024, symSize: 0x240 }
  - { offset: 0x8A239, size: 0x8, addend: 0x0, symName: __ZNSt3__16__treeIjNS_4lessIjEENS_9allocatorIjEEE7destroyEPNS_11__tree_nodeIjPvEE, symObjAddr: 0x8F14, symBinAddr: 0x10000EFCC, symSize: 0x48 }
  - { offset: 0x8ADBF, size: 0x8, addend: 0x0, symName: '__ZNK6fuzzer7TracePC15CollectFeaturesIZNS_17AnalyzeDictionaryEPNS_6FuzzerERKNSt3__16vectorINS5_IhNS4_9allocatorIhEEEENS6_IS8_EEEERSA_E3$_0EEmT_', symObjAddr: 0x3384, symBinAddr: 0x100009D2C, symSize: 0x290 }
  - { offset: 0x8B41F, size: 0x8, addend: 0x0, symName: '__ZNK6fuzzer7TracePC15CollectFeaturesIZNS_17AnalyzeDictionaryEPNS_6FuzzerERKNSt3__16vectorINS5_IhNS4_9allocatorIhEEEENS6_IS8_EEEERSA_E3$_1EEmT_', symObjAddr: 0x3614, symBinAddr: 0x100009FBC, symSize: 0x290 }
  - { offset: 0x8B470, size: 0x8, addend: 0x0, symName: '__ZNK6fuzzer7TracePC15CollectFeaturesIZNS_17AnalyzeDictionaryEPNS_6FuzzerERKNSt3__16vectorINS5_IhNS4_9allocatorIhEEEENS6_IS8_EEEERSA_E3$_1EEmT_', symObjAddr: 0x3614, symBinAddr: 0x100009FBC, symSize: 0x290 }
  - { offset: 0x8BAD0, size: 0x8, addend: 0x0, symName: __ZN6fuzzer14ParseSeedInutsEPKc, symObjAddr: 0x38A4, symBinAddr: 0x10000A24C, symSize: 0x49C }
  - { offset: 0x8BB2B, size: 0x8, addend: 0x0, symName: __ZNSt3__16vectorINS_12basic_stringIcNS_11char_traitsIcEENS_9allocatorIcEEEENS4_IS6_EEE20__throw_out_of_rangeB8nn210108Ev, symObjAddr: 0x7A3C, symBinAddr: 0x10000DAF4, symSize: 0x14 }
  - { offset: 0x8BB36, size: 0x8, addend: 0x0, symName: __ZNSt3__16vectorIiNS_9allocatorIiEEE20__throw_length_errorB8nn210108Ev, symObjAddr: 0x8F5C, symBinAddr: 0x10000F014, symSize: 0x14 }
  - { offset: 0x8BB4E, size: 0x8, addend: 0x0, symName: '__ZN6fuzzer18ForEachNonZeroByteIZNKS_7TracePC15CollectFeaturesIZNS_17AnalyzeDictionaryEPNS_6FuzzerERKNSt3__16vectorINS6_IhNS5_9allocatorIhEEEENS7_IS9_EEEERSB_E3$_0EEmT_EUlmmhE_EEmPKhSJ_mSG_', symObjAddr: 0x8F70, symBinAddr: 0x10000F028, symSize: 0x3D8 }
  - { offset: 0x8BF53, size: 0x8, addend: 0x0, symName: __ZNSt3__16vectorImNS_9allocatorImEEE9push_backB8nn210108ERKm, symObjAddr: 0x9348, symBinAddr: 0x10000F400, symSize: 0xF8 }
  - { offset: 0x8C36C, size: 0x8, addend: 0x0, symName: __ZNSt3__16vectorImNS_9allocatorImEEE20__throw_length_errorB8nn210108Ev, symObjAddr: 0x9440, symBinAddr: 0x10000F4F8, symSize: 0x14 }
  - { offset: 0x8C377, size: 0x8, addend: 0x0, symName: __ZNSt3__16vectorImNS_9allocatorImEEE20__throw_length_errorB8nn210108Ev, symObjAddr: 0x9440, symBinAddr: 0x10000F4F8, symSize: 0x14 }
  - { offset: 0x8C38F, size: 0x8, addend: 0x0, symName: '__ZN6fuzzer18ForEachNonZeroByteIZNKS_7TracePC15CollectFeaturesIZNS_17AnalyzeDictionaryEPNS_6FuzzerERKNSt3__16vectorINS6_IhNS5_9allocatorIhEEEENS7_IS9_EEEERSB_E3$_1EEmT_EUlmmhE_EEmPKhSJ_mSG_', symObjAddr: 0x9454, symBinAddr: 0x10000F50C, symSize: 0x3D8 }
  - { offset: 0x8C7AE, size: 0x8, addend: 0x0, symName: __ZNSt3__16vectorINS_12basic_stringIcNS_11char_traitsIcEENS_9allocatorIcEEEENS4_IS6_EEE9push_backB8nn210108EOS6_, symObjAddr: 0x3D40, symBinAddr: 0x10000A6E8, symSize: 0x140 }
  - { offset: 0x8CC77, size: 0x8, addend: 0x0, symName: __ZNSt3__16vectorINS_12basic_stringIcNS_11char_traitsIcEENS_9allocatorIcEEEENS4_IS6_EEED1B8nn210108Ev, symObjAddr: 0x3E80, symBinAddr: 0x10000A828, symSize: 0x80 }
  - { offset: 0x8CDBE, size: 0x8, addend: 0x0, symName: __ZNSt3__16vectorINS_12basic_stringIcNS_11char_traitsIcEENS_9allocatorIcEEEENS4_IS6_EEED1B8nn210108Ev, symObjAddr: 0x3E80, symBinAddr: 0x10000A828, symSize: 0x80 }
  - { offset: 0x8E890, size: 0x8, addend: 0x0, symName: __ZNSt3__16vectorINS_12basic_stringIcNS_11char_traitsIcEENS_9allocatorIcEEEENS4_IS6_EEE16__init_with_sizeB8nn210108IPPcSB_EEvT_T0_m, symObjAddr: 0x982C, symBinAddr: 0x10000F8E4, symSize: 0x118 }
  - { offset: 0x8ED5F, size: 0x8, addend: 0x0, symName: __ZNSt3__16vectorINS_12basic_stringIcNS_11char_traitsIcEENS_9allocatorIcEEEENS4_IS6_EEE24__emplace_back_slow_pathIJRKS6_EEEPS6_DpOT_, symObjAddr: 0x78F8, symBinAddr: 0x10000D9C4, symSize: 0x130 }
  - { offset: 0x8F1B1, size: 0x8, addend: 0x0, symName: __ZNSt3__16vectorINS_6threadENS_9allocatorIS1_EEE8__appendEm, symObjAddr: 0x7064, symBinAddr: 0x10000D1BC, symSize: 0x280 }
  - { offset: 0x8F752, size: 0x8, addend: 0x0, symName: __ZNSt3__16vectorINS_6threadENS_9allocatorIS1_EEE20__throw_length_errorB8nn210108Ev, symObjAddr: 0x72E4, symBinAddr: 0x10000D43C, symSize: 0x14 }
  - { offset: 0x8F75D, size: 0x8, addend: 0x0, symName: __ZN6fuzzer11InputCorpusC2ERKNSt3__112basic_stringIcNS1_11char_traitsIcEENS1_9allocatorIcEEEENS_15EntropicOptionsE, symObjAddr: 0x74BC, symBinAddr: 0x10000D614, symSize: 0x190 }
  - { offset: 0x9002F, size: 0x8, addend: 0x0, symName: __ZN6fuzzer14FuzzingOptionsD2Ev, symObjAddr: 0x76E4, symBinAddr: 0x10000D83C, symSize: 0x188 }
  - { offset: 0x90B3C, size: 0x8, addend: 0x0, symName: __ZNSt3__16vectorINS0_IhNS_9allocatorIhEEEENS1_IS3_EEED1B8nn210108Ev, symObjAddr: 0x6098, symBinAddr: 0x10000CA40, symSize: 0x84 }
  - { offset: 0x90FC6, size: 0x8, addend: 0x0, symName: __ZNSt3__16vectorIN6fuzzer9SizedFileENS_9allocatorIS2_EEE24__emplace_back_slow_pathIJS2_EEEPS2_DpOT_, symObjAddr: 0x7364, symBinAddr: 0x10000D4BC, symSize: 0x144 }
  - { offset: 0x91689, size: 0x8, addend: 0x0, symName: __ZNSt3__16vectorIN6fuzzer9SizedFileENS_9allocatorIS2_EEE20__throw_length_errorB8nn210108Ev, symObjAddr: 0x74A8, symBinAddr: 0x10000D600, symSize: 0x14 }
  - { offset: 0x916A1, size: 0x8, addend: 0x0, symName: _LLVMFuzzerRunDriver, symObjAddr: 0x611C, symBinAddr: 0x10000CAC4, symSize: 0x4 }
  - { offset: 0x916ED, size: 0x8, addend: 0x0, symName: _LLVMFuzzerRunDriver, symObjAddr: 0x611C, symBinAddr: 0x10000CAC4, symSize: 0x4 }
  - { offset: 0x91EBF, size: 0x8, addend: 0x0, symName: __ZN6fuzzer7CommandC2ERKS0_, symObjAddr: 0x6880, symBinAddr: 0x10000CD3C, symSize: 0x110 }
  - { offset: 0x91FC2, size: 0x8, addend: 0x0, symName: __ZN6fuzzer7CommandC2ERKS0_, symObjAddr: 0x6880, symBinAddr: 0x10000CD3C, symSize: 0x110 }
  - { offset: 0x92E8F, size: 0x8, addend: 0x0, symName: __ZNSt3__16vectorINS_6threadENS_9allocatorIS1_EEE20__throw_length_errorB8nn210108Ev, symObjAddr: 0x72E4, symBinAddr: 0x10000D43C, symSize: 0x14 }
  - { offset: 0x92EA7, size: 0x8, addend: 0x0, symName: __ZNSt3__114__thread_proxyB8nn210108INS_5tupleIJNS_10unique_ptrINS_15__thread_structENS_14default_deleteIS3_EEEEPFvRKN6fuzzer7CommandEPNS_6atomicIjEEjPNSB_IbEEENS_17reference_wrapperIS8_EESD_jSF_EEEEEPvSL_, symObjAddr: 0x72F8, symBinAddr: 0x10000D450, symSize: 0x6C }
  - { offset: 0x93144, size: 0x8, addend: 0x0, symName: __ZNSt3__16vectorIN6fuzzer9SizedFileENS_9allocatorIS2_EEE20__throw_length_errorB8nn210108Ev, symObjAddr: 0x74A8, symBinAddr: 0x10000D600, symSize: 0x14 }
  - { offset: 0x9315C, size: 0x8, addend: 0x0, symName: __ZN6fuzzer11InputCorpusC2ERKNSt3__112basic_stringIcNS1_11char_traitsIcEENS1_9allocatorIcEEEENS_15EntropicOptionsE, symObjAddr: 0x74BC, symBinAddr: 0x10000D614, symSize: 0x190 }
  - { offset: 0x93A7F, size: 0x8, addend: 0x0, symName: __GLOBAL__sub_I_FuzzerDriver.cpp, symObjAddr: 0x9988, symBinAddr: 0x10000F9FC, symSize: 0x1C }
  - { offset: 0x93A97, size: 0x8, addend: 0x0, symName: __GLOBAL__sub_I_FuzzerDriver.cpp, symObjAddr: 0x9988, symBinAddr: 0x10000F9FC, symSize: 0x1C }
  - { offset: 0x958CA, size: 0x8, addend: 0x0, symName: __ZN6fuzzer17ExternalFunctionsC2Ev, symObjAddr: 0x0, symBinAddr: 0x10000FA18, symSize: 0x2F4 }
  - { offset: 0x95E99, size: 0x8, addend: 0x0, symName: __ZN6fuzzer17ExternalFunctionsC2Ev, symObjAddr: 0x0, symBinAddr: 0x10000FA18, symSize: 0x2F4 }
  - { offset: 0x96544, size: 0x8, addend: 0x0, symName: __ZN6fuzzer17ExternalFunctionsC1Ev, symObjAddr: 0x2F4, symBinAddr: 0x10000FD0C, symSize: 0x4 }
  - { offset: 0x96572, size: 0x8, addend: 0x0, symName: __ZN6fuzzer17ExternalFunctionsC1Ev, symObjAddr: 0x2F4, symBinAddr: 0x10000FD0C, symSize: 0x4 }
  - { offset: 0x98FBE, size: 0x8, addend: 0x0, symName: __ZN6fuzzer18ExtraCountersBeginEv, symObjAddr: 0x0, symBinAddr: 0x10000FD10, symSize: 0x8 }
  - { offset: 0x98FD1, size: 0x8, addend: 0x0, symName: __ZN6fuzzer18ExtraCountersBeginEv, symObjAddr: 0x0, symBinAddr: 0x10000FD10, symSize: 0x8 }
  - { offset: 0x98FEF, size: 0x8, addend: 0x0, symName: __ZN6fuzzer16ExtraCountersEndEv, symObjAddr: 0x8, symBinAddr: 0x10000FD18, symSize: 0x8 }
  - { offset: 0x9900D, size: 0x8, addend: 0x0, symName: __ZN6fuzzer18ClearExtraCountersEv, symObjAddr: 0x10, symBinAddr: 0x10000FD20, symSize: 0x4 }
  - { offset: 0x99168, size: 0x8, addend: 0x0, symName: __ZN6fuzzer12WorkerThreadEPNS_8JobQueueES1_, symObjAddr: 0x0, symBinAddr: 0x10000FD24, symSize: 0xC4 }
  - { offset: 0xA817F, size: 0x8, addend: 0x0, symName: __ZNSt3__1rsB8nn210108IcNS_11char_traitsIcEENS_9allocatorIcEEEERNS_13basic_istreamIT_T0_EES9_RNS_12basic_stringIS6_S7_T1_EE, symObjAddr: 0x7100, symBinAddr: 0x10001569C, symSize: 0x1D0 }
  - { offset: 0xB3386, size: 0x8, addend: 0x0, symName: __ZNSt3__127__tree_balance_after_insertB8nn210108IPNS_16__tree_node_baseIPvEEEEvT_S5_, symObjAddr: 0x621C, symBinAddr: 0x100015020, symSize: 0x1D4 }
  - { offset: 0xB5E00, size: 0x8, addend: 0x0, symName: __ZNK6fuzzer7Command12getFlagValueERKNSt3__112basic_stringIcNS1_11char_traitsIcEENS1_9allocatorIcEEEE, symObjAddr: 0x6C58, symBinAddr: 0x1000151F4, symSize: 0x2A8 }
  - { offset: 0xB8911, size: 0x8, addend: 0x0, symName: __ZNSt3__114__thread_proxyB8nn210108INS_5tupleIJNS_10unique_ptrINS_15__thread_structENS_14default_deleteIS3_EEEEPFvPN6fuzzer8JobQueueES9_ES9_S9_EEEEEPvSD_, symObjAddr: 0x8F60, symBinAddr: 0x100015E08, symSize: 0x64 }
  - { offset: 0xB9DB5, size: 0x8, addend: 0x0, symName: __ZN6fuzzer12WorkerThreadEPNS_8JobQueueES1_, symObjAddr: 0x0, symBinAddr: 0x10000FD24, symSize: 0xC4 }
  - { offset: 0xBA189, size: 0x8, addend: 0x0, symName: __ZN6fuzzer12FuzzWithForkERNS_6RandomERKNS_14FuzzingOptionsERKNSt3__16vectorINS5_12basic_stringIcNS5_11char_traitsIcEENS5_9allocatorIcEEEENSA_ISC_EEEESG_i, symObjAddr: 0x1A4, symBinAddr: 0x10000FEC8, symSize: 0x1724 }
  - { offset: 0xC0565, size: 0x8, addend: 0x0, symName: __ZNSt3__13setIjNS_4lessIjEENS_9allocatorIjEEE6insertB8nn210108INS_21__tree_const_iteratorIjPNS_11__tree_nodeIjPvEElEEEEvT_SD_, symObjAddr: 0x18C8, symBinAddr: 0x1000115EC, symSize: 0x104 }
  - { offset: 0xC1CE2, size: 0x8, addend: 0x0, symName: __ZN6fuzzer8JobQueue3PopEv, symObjAddr: 0xC4, symBinAddr: 0x10000FDE8, symSize: 0xE0 }
  - { offset: 0xC1FCE, size: 0x8, addend: 0x0, symName: __ZNSt3__15dequeIPN6fuzzer7FuzzJobENS_9allocatorIS3_EEE19__add_back_capacityEv, symObjAddr: 0x4434, symBinAddr: 0x100013E8C, symSize: 0x2F0 }
  - { offset: 0xC2B17, size: 0x8, addend: 0x0, symName: __ZNSt3__114__split_bufferIPPN6fuzzer7FuzzJobENS_9allocatorIS4_EEE12emplace_backIJRS4_EEEvDpOT_, symObjAddr: 0x4724, symBinAddr: 0x10001417C, symSize: 0x180 }
  - { offset: 0xC5134, size: 0x8, addend: 0x0, symName: __ZNSt3__16vectorINS_12basic_stringIcNS_11char_traitsIcEENS_9allocatorIcEEEENS4_IS6_EEE18__assign_with_sizeB8nn210108IPS6_SA_EEvT_T0_l, symObjAddr: 0x7468, symBinAddr: 0x1000159DC, symSize: 0x28C }
  - { offset: 0xC5DE6, size: 0x8, addend: 0x0, symName: __ZNSt3__13setIjNS_4lessIjEENS_9allocatorIjEEE6insertB8nn210108INS_21__tree_const_iteratorIjPNS_11__tree_nodeIjPvEElEEEEvT_SD_, symObjAddr: 0x18C8, symBinAddr: 0x1000115EC, symSize: 0x104 }
  - { offset: 0xC5E2D, size: 0x8, addend: 0x0, symName: __ZNSt3__13setIjNS_4lessIjEENS_9allocatorIjEEE6insertB8nn210108INS_21__tree_const_iteratorIjPNS_11__tree_nodeIjPvEElEEEEvT_SD_, symObjAddr: 0x18C8, symBinAddr: 0x1000115EC, symSize: 0x104 }
  - { offset: 0xC61F6, size: 0x8, addend: 0x0, symName: __ZN6fuzzer9GlobalEnv12CreateNewJobEm, symObjAddr: 0x19CC, symBinAddr: 0x1000116F0, symSize: 0x16C8 }
  - { offset: 0xCD02D, size: 0x8, addend: 0x0, symName: '__ZZN6fuzzer12FuzzWithForkERNS_6RandomERKNS_14FuzzingOptionsERKNSt3__16vectorINS5_12basic_stringIcNS5_11char_traitsIcEENS5_9allocatorIcEEEENSA_ISC_EEEESG_iENK3$_0clEv', symObjAddr: 0x3094, symBinAddr: 0x100012DB8, symSize: 0x19C }
  - { offset: 0xCD038, size: 0x8, addend: 0x0, symName: __ZN6fuzzer7FuzzJobD2Ev, symObjAddr: 0x8FD8, symBinAddr: 0x100015E6C, symSize: 0x17C }
  - { offset: 0xCD957, size: 0x8, addend: 0x0, symName: __ZN6fuzzer9GlobalEnv14RunOneMergeJobEPNS_7FuzzJobE, symObjAddr: 0x3230, symBinAddr: 0x100012F54, symSize: 0xEF4 }
  - { offset: 0xD172D, size: 0x8, addend: 0x0, symName: '__ZZN6fuzzer12FuzzWithForkERNS_6RandomERKNS_14FuzzingOptionsERKNSt3__16vectorINS5_12basic_stringIcNS5_11char_traitsIcEENS5_9allocatorIcEEEENSA_ISC_EEEESG_iENK3$_0clEv', symObjAddr: 0x3094, symBinAddr: 0x100012DB8, symSize: 0x19C }
  - { offset: 0xD1F7C, size: 0x8, addend: 0x0, symName: __ZNSt3__16vectorINS_12basic_stringIcNS_11char_traitsIcEENS_9allocatorIcEEEENS4_IS6_EEE18__assign_with_sizeB8nn210108IPS6_SA_EEvT_T0_l, symObjAddr: 0x7468, symBinAddr: 0x1000159DC, symSize: 0x28C }
  - { offset: 0xD1F87, size: 0x8, addend: 0x0, symName: __ZNK6fuzzer9GlobalEnv26secondsSinceProcessStartUpEv, symObjAddr: 0x43F0, symBinAddr: 0x100013E48, symSize: 0x44 }
  - { offset: 0xD2041, size: 0x8, addend: 0x0, symName: __ZN6fuzzer7FuzzJobD2Ev, symObjAddr: 0x8FD8, symBinAddr: 0x100015E6C, symSize: 0x17C }
  - { offset: 0xD2342, size: 0x8, addend: 0x0, symName: __ZNSt3__16__treeIjNS_4lessIjEENS_9allocatorIjEEE12__find_equalIjEERPNS_16__tree_node_baseIPvEENS_21__tree_const_iteratorIjPNS_11__tree_nodeIjS8_EElEERPNS_15__tree_end_nodeISA_EESB_RKT_, symObjAddr: 0x8DC0, symBinAddr: 0x100015C68, symSize: 0x1A0 }
  - { offset: 0xD23A7, size: 0x8, addend: 0x0, symName: __ZNSt3__16__treeIjNS_4lessIjEENS_9allocatorIjEEE12__find_equalIjEERPNS_16__tree_node_baseIPvEENS_21__tree_const_iteratorIjPNS_11__tree_nodeIjS8_EElEERPNS_15__tree_end_nodeISA_EESB_RKT_, symObjAddr: 0x8DC0, symBinAddr: 0x100015C68, symSize: 0x1A0 }
  - { offset: 0xD23C4, size: 0x8, addend: 0x0, symName: __ZNSt3__16__treeIjNS_4lessIjEENS_9allocatorIjEEE12__find_equalIjEERPNS_16__tree_node_baseIPvEENS_21__tree_const_iteratorIjPNS_11__tree_nodeIjS8_EElEERPNS_15__tree_end_nodeISA_EESB_RKT_, symObjAddr: 0x8DC0, symBinAddr: 0x100015C68, symSize: 0x1A0 }
  - { offset: 0xD3A3F, size: 0x8, addend: 0x0, symName: __ZN6fuzzer9GlobalEnv8StopFileEv, symObjAddr: 0x5138, symBinAddr: 0x100014608, symSize: 0xF4 }
  - { offset: 0xD3A4A, size: 0x8, addend: 0x0, symName: __ZN6fuzzer9GlobalEnv8StopFileEv, symObjAddr: 0x5138, symBinAddr: 0x100014608, symSize: 0xF4 }
  - { offset: 0xD3DD7, size: 0x8, addend: 0x0, symName: __ZNK6fuzzer7Command7hasFlagERKNSt3__112basic_stringIcNS1_11char_traitsIcEENS1_9allocatorIcEEEE, symObjAddr: 0x522C, symBinAddr: 0x1000146FC, symSize: 0x1A8 }
  - { offset: 0xD3DE2, size: 0x8, addend: 0x0, symName: __ZNK6fuzzer7Command7hasFlagERKNSt3__112basic_stringIcNS1_11char_traitsIcEENS1_9allocatorIcEEEE, symObjAddr: 0x522C, symBinAddr: 0x1000146FC, symSize: 0x1A8 }
  - { offset: 0xD4593, size: 0x8, addend: 0x0, symName: __ZN6fuzzer9GlobalEnv10CollectDFTERKNSt3__112basic_stringIcNS1_11char_traitsIcEENS1_9allocatorIcEEEE, symObjAddr: 0x53D4, symBinAddr: 0x1000148A4, symSize: 0x570 }
  - { offset: 0xD459E, size: 0x8, addend: 0x0, symName: __ZN6fuzzer9GlobalEnv10CollectDFTERKNSt3__112basic_stringIcNS1_11char_traitsIcEENS1_9allocatorIcEEEE, symObjAddr: 0x53D4, symBinAddr: 0x1000148A4, symSize: 0x570 }
  - { offset: 0xD791C, size: 0x8, addend: 0x0, symName: __ZNSt3__16vectorIN6fuzzer9SizedFileENS_9allocatorIS2_EEE24__emplace_back_slow_pathIJRKS2_EEEPS2_DpOT_, symObjAddr: 0x72D0, symBinAddr: 0x10001586C, symSize: 0x170 }
  - { offset: 0xD8027, size: 0x8, addend: 0x0, symName: __ZNK6fuzzer7Command12getFlagValueERKNSt3__112basic_stringIcNS1_11char_traitsIcEENS1_9allocatorIcEEEE, symObjAddr: 0x6C58, symBinAddr: 0x1000151F4, symSize: 0x2A8 }
  - { offset: 0xD8C37, size: 0x8, addend: 0x0, symName: __ZNSt3__16vectorImNS_9allocatorImEEE6insertENS_11__wrap_iterIPKmEERS5_, symObjAddr: 0x6F00, symBinAddr: 0x10001549C, symSize: 0x200 }
  - { offset: 0xD8C42, size: 0x8, addend: 0x0, symName: __ZNSt3__16vectorImNS_9allocatorImEEE6insertENS_11__wrap_iterIPKmEERS5_, symObjAddr: 0x6F00, symBinAddr: 0x10001549C, symSize: 0x200 }
  - { offset: 0xD9450, size: 0x8, addend: 0x0, symName: __ZNSt3__1rsB8nn210108IcNS_11char_traitsIcEENS_9allocatorIcEEEERNS_13basic_istreamIT_T0_EES9_RNS_12basic_stringIS6_S7_T1_EE, symObjAddr: 0x7100, symBinAddr: 0x10001569C, symSize: 0x1D0 }
  - { offset: 0xD9F50, size: 0x8, addend: 0x0, symName: __ZNSt3__114__split_bufferIPPN6fuzzer7FuzzJobENS_9allocatorIS4_EEE12emplace_backIJRS4_EEEvDpOT_, symObjAddr: 0x4724, symBinAddr: 0x10001417C, symSize: 0x180 }
  - { offset: 0xDA3F5, size: 0x8, addend: 0x0, symName: __ZNSt3__114__split_bufferIPPN6fuzzer7FuzzJobENS_9allocatorIS4_EEE12emplace_backIJS4_EEEvDpOT_, symObjAddr: 0x48A4, symBinAddr: 0x1000142FC, symSize: 0x180 }
  - { offset: 0xDA40D, size: 0x8, addend: 0x0, symName: __ZNSt3__114__split_bufferIPPN6fuzzer7FuzzJobENS_9allocatorIS4_EEE12emplace_backIJS4_EEEvDpOT_, symObjAddr: 0x48A4, symBinAddr: 0x1000142FC, symSize: 0x180 }
  - { offset: 0xDA8B2, size: 0x8, addend: 0x0, symName: __ZNSt3__114__split_bufferIPPN6fuzzer7FuzzJobENS_9allocatorIS4_EEE13emplace_frontIJS4_EEEvDpOT_, symObjAddr: 0x4A24, symBinAddr: 0x10001447C, symSize: 0x18C }
  - { offset: 0xDA8CA, size: 0x8, addend: 0x0, symName: __ZNSt3__114__split_bufferIPPN6fuzzer7FuzzJobENS_9allocatorIS4_EEE13emplace_frontIJS4_EEEvDpOT_, symObjAddr: 0x4A24, symBinAddr: 0x10001447C, symSize: 0x18C }
  - { offset: 0xDB0E5, size: 0x8, addend: 0x0, symName: __ZNSt3__16__treeINS_12basic_stringIcNS_11char_traitsIcEENS_9allocatorIcEEEENS_4lessIS6_EENS4_IS6_EEE25__emplace_unique_key_argsIS6_JRKS6_EEENS_4pairINS_15__tree_iteratorIS6_PNS_11__tree_nodeIS6_PvEElEEbEERKT_DpOT0_, symObjAddr: 0x6010, symBinAddr: 0x100014E14, symSize: 0xE0 }
  - { offset: 0xDB80F, size: 0x8, addend: 0x0, symName: __ZNSt3__16__treeINS_12basic_stringIcNS_11char_traitsIcEENS_9allocatorIcEEEENS_4lessIS6_EENS4_IS6_EEE12__find_equalIS6_EERPNS_16__tree_node_baseIPvEERPNS_15__tree_end_nodeISF_EERKT_, symObjAddr: 0x60F0, symBinAddr: 0x100014EF4, symSize: 0x12C }
  - { offset: 0xDF22F, size: 0x8, addend: 0x0, symName: __ZN6fuzzerL10OutputFileE, symObjAddr: 0x5E418, symBinAddr: 0x1000783B8, symSize: 0x0 }
  - { offset: 0xDF296, size: 0x8, addend: 0x0, symName: __ZN6fuzzer13GetOutputFileEv, symObjAddr: 0x0, symBinAddr: 0x100015FE8, symSize: 0xC }
  - { offset: 0xDF2B4, size: 0x8, addend: 0x0, symName: __ZN6fuzzer13SetOutputFileEP7__sFILE, symObjAddr: 0xC, symBinAddr: 0x100015FF4, symSize: 0xC }
  - { offset: 0xDF2DD, size: 0x8, addend: 0x0, symName: __ZN6fuzzer8GetEpochERKNSt3__112basic_stringIcNS0_11char_traitsIcEENS0_9allocatorIcEEEE, symObjAddr: 0x18, symBinAddr: 0x100016000, symSize: 0x54 }
  - { offset: 0xDF390, size: 0x8, addend: 0x0, symName: __ZN6fuzzer12FileToVectorERKNSt3__112basic_stringIcNS0_11char_traitsIcEENS0_9allocatorIcEEEEmb, symObjAddr: 0x6C, symBinAddr: 0x100016054, symSize: 0x2BC }
  - { offset: 0xDF870, size: 0x8, addend: 0x0, symName: __ZN6fuzzer6PrintfEPKcz, symObjAddr: 0x328, symBinAddr: 0x100016310, symSize: 0x44 }
  - { offset: 0xDF881, size: 0x8, addend: 0x0, symName: __ZN6fuzzer6PrintfEPKcz, symObjAddr: 0x328, symBinAddr: 0x100016310, symSize: 0x44 }
  - { offset: 0xDF8E7, size: 0x8, addend: 0x0, symName: __ZN6fuzzer12FileToStringERKNSt3__112basic_stringIcNS0_11char_traitsIcEENS0_9allocatorIcEEEE, symObjAddr: 0x36C, symBinAddr: 0x100016354, symSize: 0x1E4 }
  - { offset: 0xDFD48, size: 0x8, addend: 0x0, symName: __ZN6fuzzer13CopyFileToErrERKNSt3__112basic_stringIcNS0_11char_traitsIcEENS0_9allocatorIcEEEE, symObjAddr: 0x550, symBinAddr: 0x100016538, symSize: 0x78 }
  - { offset: 0xDFF49, size: 0x8, addend: 0x0, symName: __ZN6fuzzer4PutsEPKc, symObjAddr: 0x5C8, symBinAddr: 0x1000165B0, symSize: 0x28 }
  - { offset: 0xDFFC5, size: 0x8, addend: 0x0, symName: __ZN6fuzzer11WriteToFileERKNSt3__16vectorIhNS0_9allocatorIhEEEERKNS0_12basic_stringIcNS0_11char_traitsIcEENS2_IcEEEE, symObjAddr: 0x5F0, symBinAddr: 0x1000165D8, symSize: 0x70 }
  - { offset: 0xE0116, size: 0x8, addend: 0x0, symName: __ZN6fuzzer11WriteToFileEPKhmRKNSt3__112basic_stringIcNS2_11char_traitsIcEENS2_9allocatorIcEEEE, symObjAddr: 0x660, symBinAddr: 0x100016648, symSize: 0x74 }
  - { offset: 0xE0208, size: 0x8, addend: 0x0, symName: __ZN6fuzzer11WriteToFileERKNSt3__112basic_stringIcNS0_11char_traitsIcEENS0_9allocatorIcEEEES8_, symObjAddr: 0x6D4, symBinAddr: 0x1000166BC, symSize: 0x8C }
  - { offset: 0xE03D6, size: 0x8, addend: 0x0, symName: __ZN6fuzzer12AppendToFileERKNSt3__112basic_stringIcNS0_11char_traitsIcEENS0_9allocatorIcEEEES8_, symObjAddr: 0x760, symBinAddr: 0x100016748, symSize: 0x8C }
  - { offset: 0xE0554, size: 0x8, addend: 0x0, symName: __ZN6fuzzer12AppendToFileEPKhmRKNSt3__112basic_stringIcNS2_11char_traitsIcEENS2_9allocatorIcEEEE, symObjAddr: 0x7EC, symBinAddr: 0x1000167D4, symSize: 0x74 }
  - { offset: 0xE066E, size: 0x8, addend: 0x0, symName: __ZN6fuzzer22ReadDirToVectorOfUnitsEPKcPNSt3__16vectorINS3_IhNS2_9allocatorIhEEEENS4_IS6_EEEEPlmbPNS3_INS2_12basic_stringIcNS2_11char_traitsIcEENS4_IcEEEENS4_ISF_EEEE, symObjAddr: 0x860, symBinAddr: 0x100016848, symSize: 0x380 }
  - { offset: 0xE1605, size: 0x8, addend: 0x0, symName: __ZN6fuzzer20GetSizedFilesFromDirERKNSt3__112basic_stringIcNS0_11char_traitsIcEENS0_9allocatorIcEEEEPNS0_6vectorINS_9SizedFileENS4_ISA_EEEE, symObjAddr: 0xBE0, symBinAddr: 0x100016BC8, symSize: 0x174 }
  - { offset: 0xE1630, size: 0x8, addend: 0x0, symName: __ZN6fuzzer20GetSizedFilesFromDirERKNSt3__112basic_stringIcNS0_11char_traitsIcEENS0_9allocatorIcEEEEPNS0_6vectorINS_9SizedFileENS4_ISA_EEEE, symObjAddr: 0xBE0, symBinAddr: 0x100016BC8, symSize: 0x174 }
  - { offset: 0xE1D60, size: 0x8, addend: 0x0, symName: __ZN6fuzzer11DirPlusFileERKNSt3__112basic_stringIcNS0_11char_traitsIcEENS0_9allocatorIcEEEES8_, symObjAddr: 0xD54, symBinAddr: 0x100016D3C, symSize: 0x130 }
  - { offset: 0xE22DE, size: 0x8, addend: 0x0, symName: __ZN6fuzzer17DupAndCloseStderrEv, symObjAddr: 0xE84, symBinAddr: 0x100016E6C, symSize: 0x70 }
  - { offset: 0xE22F8, size: 0x8, addend: 0x0, symName: __ZN6fuzzer17DupAndCloseStderrEv, symObjAddr: 0xE84, symBinAddr: 0x100016E6C, symSize: 0x70 }
  - { offset: 0xE23EE, size: 0x8, addend: 0x0, symName: __ZN6fuzzer11CloseStdoutEv, symObjAddr: 0xEF4, symBinAddr: 0x100016EDC, symSize: 0x8 }
  - { offset: 0xE241D, size: 0x8, addend: 0x0, symName: __ZN6fuzzer7VPrintfEbPKcz, symObjAddr: 0xEFC, symBinAddr: 0x100016EE4, symSize: 0x44 }
  - { offset: 0xE248C, size: 0x8, addend: 0x0, symName: __ZN6fuzzer14MkDirRecursiveERKNSt3__112basic_stringIcNS0_11char_traitsIcEENS0_9allocatorIcEEEE, symObjAddr: 0xF40, symBinAddr: 0x100016F28, symSize: 0x60 }
  - { offset: 0xE2545, size: 0x8, addend: 0x0, symName: __ZN6fuzzerL19MkDirRecursiveInnerERKNSt3__112basic_stringIcNS0_11char_traitsIcEENS0_9allocatorIcEEEE, symObjAddr: 0xFA0, symBinAddr: 0x100016F88, symSize: 0xFC }
  - { offset: 0xE283D, size: 0x8, addend: 0x0, symName: __ZN6fuzzer14RmDirRecursiveERKNSt3__112basic_stringIcNS0_11char_traitsIcEENS0_9allocatorIcEEEE, symObjAddr: 0x109C, symBinAddr: 0x100017084, symSize: 0x1C }
  - { offset: 0xE286E, size: 0x8, addend: 0x0, symName: __ZN6fuzzer14RmDirRecursiveERKNSt3__112basic_stringIcNS0_11char_traitsIcEENS0_9allocatorIcEEEE, symObjAddr: 0x109C, symBinAddr: 0x100017084, symSize: 0x1C }
  - { offset: 0xE292E, size: 0x8, addend: 0x0, symName: __ZN6fuzzer8TempPathEPKcS1_, symObjAddr: 0x10B8, symBinAddr: 0x1000170A0, symSize: 0x230 }
  - { offset: 0xF21E2, size: 0x8, addend: 0x0, symName: '__ZZN6fuzzer14RmDirRecursiveERKNSt3__112basic_stringIcNS0_11char_traitsIcEENS0_9allocatorIcEEEEEN3$_08__invokeES8_', symObjAddr: 0x1318, symBinAddr: 0x1000172D0, symSize: 0x4 }
  - { offset: 0xF4D8A, size: 0x8, addend: 0x0, symName: __ZNSt3__16vectorINS0_IhNS_9allocatorIhEEEENS1_IS3_EEE24__emplace_back_slow_pathIJRKS3_EEEPS3_DpOT_, symObjAddr: 0x1408, symBinAddr: 0x1000172DC, symSize: 0x138 }
  - { offset: 0xF53F3, size: 0x8, addend: 0x0, symName: __ZNSt3__16vectorINS0_IhNS_9allocatorIhEEEENS1_IS3_EEE20__throw_length_errorB8nn210108Ev, symObjAddr: 0x1540, symBinAddr: 0x100017414, symSize: 0x14 }
  - { offset: 0xF57D4, size: 0x8, addend: 0x0, symName: __ZNSt3__16vectorINS0_IhNS_9allocatorIhEEEENS1_IS3_EEE24__emplace_back_slow_pathIJRKS3_EEEPS3_DpOT_, symObjAddr: 0x1408, symBinAddr: 0x1000172DC, symSize: 0x138 }
  - { offset: 0xF604D, size: 0x8, addend: 0x0, symName: '__ZZN6fuzzer14RmDirRecursiveERKNSt3__112basic_stringIcNS0_11char_traitsIcEENS0_9allocatorIcEEEEEN3$_08__invokeES8_', symObjAddr: 0x1318, symBinAddr: 0x1000172D0, symSize: 0x4 }
  - { offset: 0xF60A4, size: 0x8, addend: 0x0, symName: '__ZZN6fuzzer14RmDirRecursiveERKNSt3__112basic_stringIcNS0_11char_traitsIcEENS0_9allocatorIcEEEEEN3$_18__invokeES8_', symObjAddr: 0x131C, symBinAddr: 0x1000172D4, symSize: 0x4 }
  - { offset: 0xF60CE, size: 0x8, addend: 0x0, symName: '__ZZN6fuzzer14RmDirRecursiveERKNSt3__112basic_stringIcNS0_11char_traitsIcEENS0_9allocatorIcEEEEEN3$_18__invokeES8_', symObjAddr: 0x131C, symBinAddr: 0x1000172D4, symSize: 0x4 }
  - { offset: 0xF60EB, size: 0x8, addend: 0x0, symName: '__ZZN6fuzzer14RmDirRecursiveERKNSt3__112basic_stringIcNS0_11char_traitsIcEENS0_9allocatorIcEEEEEN3$_18__invokeES8_', symObjAddr: 0x131C, symBinAddr: 0x1000172D4, symSize: 0x4 }
  - { offset: 0xF6131, size: 0x8, addend: 0x0, symName: '__ZZN6fuzzer14RmDirRecursiveERKNSt3__112basic_stringIcNS0_11char_traitsIcEENS0_9allocatorIcEEEEEN3$_28__invokeES8_', symObjAddr: 0x1320, symBinAddr: 0x1000172D8, symSize: 0x4 }
  - { offset: 0xF615B, size: 0x8, addend: 0x0, symName: '__ZZN6fuzzer14RmDirRecursiveERKNSt3__112basic_stringIcNS0_11char_traitsIcEENS0_9allocatorIcEEEEEN3$_28__invokeES8_', symObjAddr: 0x1320, symBinAddr: 0x1000172D8, symSize: 0x4 }
  - { offset: 0xF6178, size: 0x8, addend: 0x0, symName: '__ZZN6fuzzer14RmDirRecursiveERKNSt3__112basic_stringIcNS0_11char_traitsIcEENS0_9allocatorIcEEEEEN3$_28__invokeES8_', symObjAddr: 0x1320, symBinAddr: 0x1000172D8, symSize: 0x4 }
  - { offset: 0xF6391, size: 0x8, addend: 0x0, symName: __ZNSt3__16vectorINS0_IhNS_9allocatorIhEEEENS1_IS3_EEE20__throw_length_errorB8nn210108Ev, symObjAddr: 0x1540, symBinAddr: 0x100017414, symSize: 0x14 }
  - { offset: 0xF67A0, size: 0x8, addend: 0x0, symName: __GLOBAL__sub_I_FuzzerIO.cpp, symObjAddr: 0x17F0, symBinAddr: 0x100017428, symSize: 0x18 }
  - { offset: 0xF67B2, size: 0x8, addend: 0x0, symName: __GLOBAL__sub_I_FuzzerIO.cpp, symObjAddr: 0x17F0, symBinAddr: 0x100017428, symSize: 0x18 }
  - { offset: 0xF67CA, size: 0x8, addend: 0x0, symName: __GLOBAL__sub_I_FuzzerIO.cpp, symObjAddr: 0x17F0, symBinAddr: 0x100017428, symSize: 0x18 }
  - { offset: 0xF842E, size: 0x8, addend: 0x0, symName: __ZN6fuzzer6IsFileERKNSt3__112basic_stringIcNS0_11char_traitsIcEENS0_9allocatorIcEEEE, symObjAddr: 0x0, symBinAddr: 0x100017440, symSize: 0x60 }
  - { offset: 0xF8454, size: 0x8, addend: 0x0, symName: __ZN6fuzzer10getDevNullEv, symObjAddr: 0xEF0, symBinAddr: 0x100018288, symSize: 0x80 }
  - { offset: 0xF847E, size: 0x8, addend: 0x0, symName: __MergedGlobals, symObjAddr: 0x23698, symBinAddr: 0x1000783C0, symSize: 0x0 }
  - { offset: 0xF84A0, size: 0x8, addend: 0x0, symName: __ZN6fuzzer6IsFileERKNSt3__112basic_stringIcNS0_11char_traitsIcEENS0_9allocatorIcEEEE, symObjAddr: 0x0, symBinAddr: 0x100017440, symSize: 0x60 }
  - { offset: 0xF8553, size: 0x8, addend: 0x0, symName: __ZN6fuzzer11IsDirectoryERKNSt3__112basic_stringIcNS0_11char_traitsIcEENS0_9allocatorIcEEEE, symObjAddr: 0x60, symBinAddr: 0x1000174A0, symSize: 0x60 }
  - { offset: 0xF8606, size: 0x8, addend: 0x0, symName: __ZN6fuzzer8FileSizeERKNSt3__112basic_stringIcNS0_11char_traitsIcEENS0_9allocatorIcEEEE, symObjAddr: 0xC0, symBinAddr: 0x100017500, symSize: 0x54 }
  - { offset: 0xF86D0, size: 0x8, addend: 0x0, symName: __ZN6fuzzer8BasenameERKNSt3__112basic_stringIcNS0_11char_traitsIcEENS0_9allocatorIcEEEE, symObjAddr: 0x114, symBinAddr: 0x100017554, symSize: 0x154 }
  - { offset: 0xF8A4E, size: 0x8, addend: 0x0, symName: __ZN6fuzzer12GetSeparatorEv, symObjAddr: 0x268, symBinAddr: 0x1000176A8, symSize: 0x8 }
  - { offset: 0xF8A59, size: 0x8, addend: 0x0, symName: __ZN6fuzzer12GetSeparatorEv, symObjAddr: 0x268, symBinAddr: 0x1000176A8, symSize: 0x8 }
  - { offset: 0xF8AC7, size: 0x8, addend: 0x0, symName: __ZN6fuzzer23ListFilesInDirRecursiveERKNSt3__112basic_stringIcNS0_11char_traitsIcEENS0_9allocatorIcEEEEPlPNS0_6vectorIS6_NS4_IS6_EEEEb, symObjAddr: 0x270, symBinAddr: 0x1000176B0, symSize: 0x3FC }
  - { offset: 0xF9880, size: 0x8, addend: 0x0, symName: __ZN6fuzzer19IterateDirRecursiveERKNSt3__112basic_stringIcNS0_11char_traitsIcEENS0_9allocatorIcEEEEPFvS8_ESA_SA_, symObjAddr: 0x714, symBinAddr: 0x100017AAC, symSize: 0x258 }
  - { offset: 0xF9FF9, size: 0x8, addend: 0x0, symName: __ZN6fuzzer11IsSeparatorEc, symObjAddr: 0x96C, symBinAddr: 0x100017D04, symSize: 0xC }
  - { offset: 0xFA004, size: 0x8, addend: 0x0, symName: __ZN6fuzzer11IsSeparatorEc, symObjAddr: 0x96C, symBinAddr: 0x100017D04, symSize: 0xC }
  - { offset: 0xFA033, size: 0x8, addend: 0x0, symName: __ZN6fuzzer8OpenFileEiPKc, symObjAddr: 0x978, symBinAddr: 0x100017D10, symSize: 0x4 }
  - { offset: 0xFA071, size: 0x8, addend: 0x0, symName: __ZN6fuzzer8OpenFileEiPKc, symObjAddr: 0x978, symBinAddr: 0x100017D10, symSize: 0x4 }
  - { offset: 0xFA08B, size: 0x8, addend: 0x0, symName: __ZN6fuzzer9CloseFileEi, symObjAddr: 0x97C, symBinAddr: 0x100017D14, symSize: 0x4 }
  - { offset: 0xFA0BB, size: 0x8, addend: 0x0, symName: __ZN6fuzzer9CloseFileEi, symObjAddr: 0x97C, symBinAddr: 0x100017D14, symSize: 0x4 }
  - { offset: 0xFA0CE, size: 0x8, addend: 0x0, symName: __ZN6fuzzer13DuplicateFileEi, symObjAddr: 0x980, symBinAddr: 0x100017D18, symSize: 0x4 }
  - { offset: 0xFA0FE, size: 0x8, addend: 0x0, symName: __ZN6fuzzer13DuplicateFileEi, symObjAddr: 0x980, symBinAddr: 0x100017D18, symSize: 0x4 }
  - { offset: 0xFA111, size: 0x8, addend: 0x0, symName: __ZN6fuzzer10RemoveFileERKNSt3__112basic_stringIcNS0_11char_traitsIcEENS0_9allocatorIcEEEE, symObjAddr: 0x984, symBinAddr: 0x100017D1C, symSize: 0x14 }
  - { offset: 0xFA13F, size: 0x8, addend: 0x0, symName: __ZN6fuzzer10RemoveFileERKNSt3__112basic_stringIcNS0_11char_traitsIcEENS0_9allocatorIcEEEE, symObjAddr: 0x984, symBinAddr: 0x100017D1C, symSize: 0x14 }
  - { offset: 0xFA15B, size: 0x8, addend: 0x0, symName: __ZN6fuzzer10RemoveFileERKNSt3__112basic_stringIcNS0_11char_traitsIcEENS0_9allocatorIcEEEE, symObjAddr: 0x984, symBinAddr: 0x100017D1C, symSize: 0x14 }
  - { offset: 0xFA178, size: 0x8, addend: 0x0, symName: __ZN6fuzzer10RemoveFileERKNSt3__112basic_stringIcNS0_11char_traitsIcEENS0_9allocatorIcEEEE, symObjAddr: 0x984, symBinAddr: 0x100017D1C, symSize: 0x14 }
  - { offset: 0xFA195, size: 0x8, addend: 0x0, symName: __ZN6fuzzer10RemoveFileERKNSt3__112basic_stringIcNS0_11char_traitsIcEENS0_9allocatorIcEEEE, symObjAddr: 0x984, symBinAddr: 0x100017D1C, symSize: 0x14 }
  - { offset: 0xFA1C1, size: 0x8, addend: 0x0, symName: __ZN6fuzzer10RenameFileERKNSt3__112basic_stringIcNS0_11char_traitsIcEENS0_9allocatorIcEEEES8_, symObjAddr: 0x998, symBinAddr: 0x100017D30, symSize: 0x24 }
  - { offset: 0xFA1FF, size: 0x8, addend: 0x0, symName: __ZN6fuzzer10RenameFileERKNSt3__112basic_stringIcNS0_11char_traitsIcEENS0_9allocatorIcEEEES8_, symObjAddr: 0x998, symBinAddr: 0x100017D30, symSize: 0x24 }
  - { offset: 0xFA21B, size: 0x8, addend: 0x0, symName: __ZN6fuzzer10RenameFileERKNSt3__112basic_stringIcNS0_11char_traitsIcEENS0_9allocatorIcEEEES8_, symObjAddr: 0x998, symBinAddr: 0x100017D30, symSize: 0x24 }
  - { offset: 0xFA238, size: 0x8, addend: 0x0, symName: __ZN6fuzzer10RenameFileERKNSt3__112basic_stringIcNS0_11char_traitsIcEENS0_9allocatorIcEEEES8_, symObjAddr: 0x998, symBinAddr: 0x100017D30, symSize: 0x24 }
  - { offset: 0xFA255, size: 0x8, addend: 0x0, symName: __ZN6fuzzer10RenameFileERKNSt3__112basic_stringIcNS0_11char_traitsIcEENS0_9allocatorIcEEEES8_, symObjAddr: 0x998, symBinAddr: 0x100017D30, symSize: 0x24 }
  - { offset: 0xFA2F8, size: 0x8, addend: 0x0, symName: __ZN6fuzzer15GetHandleFromFdEi, symObjAddr: 0x9BC, symBinAddr: 0x100017D54, symSize: 0x8 }
  - { offset: 0xFA327, size: 0x8, addend: 0x0, symName: __ZN6fuzzer7DirNameERKNSt3__112basic_stringIcNS0_11char_traitsIcEENS0_9allocatorIcEEEE, symObjAddr: 0x9C4, symBinAddr: 0x100017D5C, symSize: 0xFC }
  - { offset: 0xFA6B4, size: 0x8, addend: 0x0, symName: __ZN6fuzzer6TmpDirEv, symObjAddr: 0xAC0, symBinAddr: 0x100017E58, symSize: 0x120 }
  - { offset: 0xFA6BF, size: 0x8, addend: 0x0, symName: __ZN6fuzzer6TmpDirEv, symObjAddr: 0xAC0, symBinAddr: 0x100017E58, symSize: 0x120 }
  - { offset: 0xFABD2, size: 0x8, addend: 0x0, symName: __ZN6fuzzer25IsInterestingCoverageFileERKNSt3__112basic_stringIcNS0_11char_traitsIcEENS0_9allocatorIcEEEE, symObjAddr: 0xBE0, symBinAddr: 0x100017F78, symSize: 0x2B8 }
  - { offset: 0xFABDD, size: 0x8, addend: 0x0, symName: __ZN6fuzzer25IsInterestingCoverageFileERKNSt3__112basic_stringIcNS0_11char_traitsIcEENS0_9allocatorIcEEEE, symObjAddr: 0xBE0, symBinAddr: 0x100017F78, symSize: 0x2B8 }
  - { offset: 0xFB338, size: 0x8, addend: 0x0, symName: __ZN6fuzzer8RawPrintEPKc, symObjAddr: 0xE98, symBinAddr: 0x100018230, symSize: 0x2C }
  - { offset: 0xFB343, size: 0x8, addend: 0x0, symName: __ZN6fuzzer8RawPrintEPKc, symObjAddr: 0xE98, symBinAddr: 0x100018230, symSize: 0x2C }
  - { offset: 0xFB398, size: 0x8, addend: 0x0, symName: __ZN6fuzzer5MkDirERKNSt3__112basic_stringIcNS0_11char_traitsIcEENS0_9allocatorIcEEEE, symObjAddr: 0xEC4, symBinAddr: 0x10001825C, symSize: 0x18 }
  - { offset: 0xFB3C6, size: 0x8, addend: 0x0, symName: __ZN6fuzzer5MkDirERKNSt3__112basic_stringIcNS0_11char_traitsIcEENS0_9allocatorIcEEEE, symObjAddr: 0xEC4, symBinAddr: 0x10001825C, symSize: 0x18 }
  - { offset: 0xFB3E2, size: 0x8, addend: 0x0, symName: __ZN6fuzzer5MkDirERKNSt3__112basic_stringIcNS0_11char_traitsIcEENS0_9allocatorIcEEEE, symObjAddr: 0xEC4, symBinAddr: 0x10001825C, symSize: 0x18 }
  - { offset: 0xFB3FF, size: 0x8, addend: 0x0, symName: __ZN6fuzzer5MkDirERKNSt3__112basic_stringIcNS0_11char_traitsIcEENS0_9allocatorIcEEEE, symObjAddr: 0xEC4, symBinAddr: 0x10001825C, symSize: 0x18 }
  - { offset: 0xFB41C, size: 0x8, addend: 0x0, symName: __ZN6fuzzer5MkDirERKNSt3__112basic_stringIcNS0_11char_traitsIcEENS0_9allocatorIcEEEE, symObjAddr: 0xEC4, symBinAddr: 0x10001825C, symSize: 0x18 }
  - { offset: 0xFB450, size: 0x8, addend: 0x0, symName: __ZN6fuzzer5RmDirERKNSt3__112basic_stringIcNS0_11char_traitsIcEENS0_9allocatorIcEEEE, symObjAddr: 0xEDC, symBinAddr: 0x100018274, symSize: 0x14 }
  - { offset: 0xFB47E, size: 0x8, addend: 0x0, symName: __ZN6fuzzer5RmDirERKNSt3__112basic_stringIcNS0_11char_traitsIcEENS0_9allocatorIcEEEE, symObjAddr: 0xEDC, symBinAddr: 0x100018274, symSize: 0x14 }
  - { offset: 0xFB49A, size: 0x8, addend: 0x0, symName: __ZN6fuzzer5RmDirERKNSt3__112basic_stringIcNS0_11char_traitsIcEENS0_9allocatorIcEEEE, symObjAddr: 0xEDC, symBinAddr: 0x100018274, symSize: 0x14 }
  - { offset: 0xFB4B7, size: 0x8, addend: 0x0, symName: __ZN6fuzzer5RmDirERKNSt3__112basic_stringIcNS0_11char_traitsIcEENS0_9allocatorIcEEEE, symObjAddr: 0xEDC, symBinAddr: 0x100018274, symSize: 0x14 }
  - { offset: 0xFB4D4, size: 0x8, addend: 0x0, symName: __ZN6fuzzer5RmDirERKNSt3__112basic_stringIcNS0_11char_traitsIcEENS0_9allocatorIcEEEE, symObjAddr: 0xEDC, symBinAddr: 0x100018274, symSize: 0x14 }
  - { offset: 0x100257, size: 0x8, addend: 0x0, symName: __ZN6fuzzer19IterateDirRecursiveERKNSt3__112basic_stringIcNS0_11char_traitsIcEENS0_9allocatorIcEEEEPFvS8_ESA_SA_, symObjAddr: 0x714, symBinAddr: 0x100017AAC, symSize: 0x258 }
  - { offset: 0x102301, size: 0x8, addend: 0x0, symName: __ZN6fuzzer6Fuzzer10IsMyThreadE, symObjAddr: 0xA1B4, symBinAddr: 0x1000444F8, symSize: 0x0 }
  - { offset: 0x103A23, size: 0x8, addend: 0x0, symName: __ZN6fuzzer19RunningUserCallbackE, symObjAddr: 0x12250D, symBinAddr: 0x100044608, symSize: 0x0 }
  - { offset: 0x103A3D, size: 0x8, addend: 0x0, symName: __MergedGlobals, symObjAddr: 0x122510, symBinAddr: 0x1000783E0, symSize: 0x0 }
  - { offset: 0x103AF0, size: 0x8, addend: 0x0, symName: __MergedGlobals, symObjAddr: 0x122510, symBinAddr: 0x1000783E0, symSize: 0x0 }
  - { offset: 0x1040CA, size: 0x8, addend: 0x0, symName: __ZN6fuzzer10MallocHookEPVKvm, symObjAddr: 0x28, symBinAddr: 0x100018330, symSize: 0xE4 }
  - { offset: 0x10430C, size: 0x8, addend: 0x0, symName: __ZN6fuzzer8FreeHookEPVKv, symObjAddr: 0x18C, symBinAddr: 0x100018494, symSize: 0xC4 }
  - { offset: 0x1046D4, size: 0x8, addend: 0x0, symName: __ZN6fuzzerL20RenameFeatureSetFileERKNSt3__112basic_stringIcNS0_11char_traitsIcEENS0_9allocatorIcEEEES8_S8_, symObjAddr: 0x2C4C, symBinAddr: 0x10001AF54, symSize: 0xA0 }
  - { offset: 0x104726, size: 0x8, addend: 0x0, symName: __ZN6fuzzerL20RenameFeatureSetFileERKNSt3__112basic_stringIcNS0_11char_traitsIcEENS0_9allocatorIcEEEES8_S8_, symObjAddr: 0x2C4C, symBinAddr: 0x10001AF54, symSize: 0xA0 }
  - { offset: 0x104743, size: 0x8, addend: 0x0, symName: __ZN6fuzzerL20RenameFeatureSetFileERKNSt3__112basic_stringIcNS0_11char_traitsIcEENS0_9allocatorIcEEEES8_S8_, symObjAddr: 0x2C4C, symBinAddr: 0x10001AF54, symSize: 0xA0 }
  - { offset: 0x104760, size: 0x8, addend: 0x0, symName: __ZN6fuzzerL20RenameFeatureSetFileERKNSt3__112basic_stringIcNS0_11char_traitsIcEENS0_9allocatorIcEEEES8_S8_, symObjAddr: 0x2C4C, symBinAddr: 0x10001AF54, symSize: 0xA0 }
  - { offset: 0x104AB6, size: 0x8, addend: 0x0, symName: '__ZN6fuzzer18ForEachNonZeroByteIZNKS_7TracePC15CollectFeaturesIZNS_6Fuzzer6RunOneEPKhmbPNS_9InputInfoEbPbE3$_0EEmT_EUlmmhE_EEmS5_S5_mSA_', symObjAddr: 0x7520, symBinAddr: 0x10001E568, symSize: 0xAEC }
  - { offset: 0x1059E6, size: 0x8, addend: 0x0, symName: '__ZZN6fuzzer6Fuzzer6RunOneEPKhmbPNS_9InputInfoEbPbENK3$_0clEj', symObjAddr: 0x800C, symBinAddr: 0x10001F054, symSize: 0x114 }
  - { offset: 0x11B971, size: 0x8, addend: 0x0, symName: __ZNSt3__113__stable_sortINS_17_ClassicAlgPolicyERNS_6__lessIvvEENS_11__wrap_iterIPN6fuzzer9SizedFileEEEEEvT1_SA_T0_NS_15iterator_traitsISA_E15difference_typeEPNSD_10value_typeEl, symObjAddr: 0x8F50, symBinAddr: 0x10001FF98, symSize: 0x2A4 }
  - { offset: 0x11C38A, size: 0x8, addend: 0x0, symName: __ZNSt3__124__buffered_inplace_mergeB8nn210108INS_17_ClassicAlgPolicyERNS_6__lessIvvEENS_11__wrap_iterIPN6fuzzer9SizedFileEEEEEvT1_SA_SA_OT0_NS_15iterator_traitsISA_E15difference_typeESF_PNSE_10value_typeE, symObjAddr: 0x9AE4, symBinAddr: 0x100020B2C, symSize: 0x174 }
  - { offset: 0x120E81, size: 0x8, addend: 0x0, symName: __ZNSt3__115__inplace_mergeINS_17_ClassicAlgPolicyERNS_6__lessIvvEENS_11__wrap_iterIPN6fuzzer9SizedFileEEEEEvT1_SA_SA_OT0_NS_15iterator_traitsISA_E15difference_typeESF_PNSE_10value_typeEl, symObjAddr: 0x964C, symBinAddr: 0x100020694, symSize: 0x2E4 }
  - { offset: 0x1218A6, size: 0x8, addend: 0x0, symName: __ZNSt3__118__stable_sort_moveINS_17_ClassicAlgPolicyERNS_6__lessIvvEENS_11__wrap_iterIPN6fuzzer9SizedFileEEEEEvT1_SA_T0_NS_15iterator_traitsISA_E15difference_typeEPNSD_10value_typeE, symObjAddr: 0x91F4, symBinAddr: 0x10002023C, symSize: 0x2AC }
  - { offset: 0x1221B4, size: 0x8, addend: 0x0, symName: __ZNSt3__119__merge_move_assignB8nn210108INS_17_ClassicAlgPolicyERNS_6__lessIvvEEPN6fuzzer9SizedFileES7_NS_11__wrap_iterIS7_EEEEvT1_SA_T2_SB_T3_T0_, symObjAddr: 0x94A0, symBinAddr: 0x1000204E8, symSize: 0x1AC }
  - { offset: 0x12298E, size: 0x8, addend: 0x0, symName: __ZNSt3__121__insertion_sort_moveB8nn210108INS_17_ClassicAlgPolicyERNS_6__lessIvvEENS_11__wrap_iterIPN6fuzzer9SizedFileEEEEEvT1_SA_PNS_15iterator_traitsISA_E10value_typeET0_, symObjAddr: 0x9930, symBinAddr: 0x100020978, symSize: 0x1B4 }
  - { offset: 0x1234D1, size: 0x8, addend: 0x0, symName: __ZNSt3__116__rotate_forwardB8nn210108INS_17_ClassicAlgPolicyENS_11__wrap_iterIPN6fuzzer9SizedFileEEEEET0_S7_S7_S7_, symObjAddr: 0x9F10, symBinAddr: 0x100020F58, symSize: 0x1E0 }
  - { offset: 0x123B7D, size: 0x8, addend: 0x0, symName: __ZNSt3__120__half_inplace_mergeB8nn210108INS_17_ClassicAlgPolicyENS_8__invertIRNS_6__lessIvvEEEENS_16reverse_iteratorIPN6fuzzer9SizedFileEEESB_NS7_INS_11__wrap_iterISA_EEEESE_SE_EEvT1_T2_T3_T4_T5_OT0_, symObjAddr: 0x9D94, symBinAddr: 0x100020DDC, symSize: 0x17C }
  - { offset: 0x124137, size: 0x8, addend: 0x0, symName: __ZNSt3__120__half_inplace_mergeB8nn210108INS_17_ClassicAlgPolicyERNS_6__lessIvvEEPN6fuzzer9SizedFileES7_NS_11__wrap_iterIS7_EES9_S9_EEvT1_T2_T3_T4_T5_OT0_, symObjAddr: 0x9C58, symBinAddr: 0x100020CA0, symSize: 0x13C }
  - { offset: 0x1256C9, size: 0x8, addend: 0x0, symName: __ZNSt3__16vectorIhNS_9allocatorIhEEE18__assign_with_sizeB8nn210108IPhS5_EEvT_T0_l, symObjAddr: 0x4C78, symBinAddr: 0x10001CD74, symSize: 0x13C }
  - { offset: 0x1266B7, size: 0x8, addend: 0x0, symName: __ZN6fuzzer6Fuzzer23CheckExitOnSrcPosOrItemEv, symObjAddr: 0x140C, symBinAddr: 0x100019714, symSize: 0x320 }
  - { offset: 0x1266DF, size: 0x8, addend: 0x0, symName: __MergedGlobals, symObjAddr: 0x122510, symBinAddr: 0x1000783E0, symSize: 0x0 }
  - { offset: 0x127109, size: 0x8, addend: 0x0, symName: __ZN6fuzzer6Fuzzer18RereadOutputCorpusEm, symObjAddr: 0x172C, symBinAddr: 0x100019A34, symSize: 0x2D0 }
  - { offset: 0x12771A, size: 0x8, addend: 0x0, symName: __ZNSt3__124uniform_int_distributionIlEclIN6fuzzer6RandomEEElRT_RKNS1_10param_typeE, symObjAddr: 0x8BA8, symBinAddr: 0x10001FBF0, symSize: 0x1B4 }
  - { offset: 0x1277BD, size: 0x8, addend: 0x0, symName: __ZNSt3__124uniform_int_distributionIlEclIN6fuzzer6RandomEEElRT_RKNS1_10param_typeE, symObjAddr: 0x8BA8, symBinAddr: 0x10001FBF0, symSize: 0x1B4 }
  - { offset: 0x1279A5, size: 0x8, addend: 0x0, symName: __ZN6fuzzer16MallocFreeTracerD1Ev, symObjAddr: 0x0, symBinAddr: 0x100018308, symSize: 0x28 }
  - { offset: 0x127B61, size: 0x8, addend: 0x0, symName: __ZN6fuzzer6Fuzzer12HandleMallocEm, symObjAddr: 0x10C, symBinAddr: 0x100018414, symSize: 0x80 }
  - { offset: 0x127C0C, size: 0x8, addend: 0x0, symName: __ZN6fuzzer8FreeHookEPVKv, symObjAddr: 0x18C, symBinAddr: 0x100018494, symSize: 0xC4 }
  - { offset: 0x127C16, size: 0x8, addend: 0x0, symName: __ZN6fuzzer6Fuzzer15DumpCurrentUnitEPKc, symObjAddr: 0x250, symBinAddr: 0x100018558, symSize: 0x18C }
  - { offset: 0x1283E5, size: 0x8, addend: 0x0, symName: __ZN6fuzzer6Fuzzer15PrintFinalStatsEv, symObjAddr: 0x3DC, symBinAddr: 0x1000186E4, symSize: 0x160 }
  - { offset: 0x1283F0, size: 0x8, addend: 0x0, symName: __ZN6fuzzer6Fuzzer15PrintFinalStatsEv, symObjAddr: 0x3DC, symBinAddr: 0x1000186E4, symSize: 0x160 }
  - { offset: 0x128A6B, size: 0x8, addend: 0x0, symName: __ZN6fuzzer6Fuzzer25WriteUnitToFileWithPrefixERKNSt3__16vectorIhNS1_9allocatorIhEEEEPKc, symObjAddr: 0x7D4, symBinAddr: 0x100018ADC, symSize: 0x294 }
  - { offset: 0x129616, size: 0x8, addend: 0x0, symName: __ZN6fuzzer6Fuzzer19StaticAlarmCallbackEv, symObjAddr: 0xA68, symBinAddr: 0x100018D70, symSize: 0xC }
  - { offset: 0x12962B, size: 0x8, addend: 0x0, symName: __ZNSt3__16vectorIjNS_9allocatorIjEEE18__assign_with_sizeB8nn210108IPjS5_EEvT_T0_l, symObjAddr: 0x4DC8, symBinAddr: 0x10001CEB0, symSize: 0x14C }
  - { offset: 0x1296AB, size: 0x8, addend: 0x0, symName: __ZN6fuzzer11InputCorpus10PrintStatsEv, symObjAddr: 0x12E4, symBinAddr: 0x1000195EC, symSize: 0xC8 }
  - { offset: 0x1296D0, size: 0x8, addend: 0x0, symName: __ZN6fuzzer11InputCorpus10PrintStatsEv, symObjAddr: 0x12E4, symBinAddr: 0x1000195EC, symSize: 0xC8 }
  - { offset: 0x129E89, size: 0x8, addend: 0x0, symName: __ZN6fuzzer6FuzzerC2EPFiPKhmERNS_11InputCorpusERNS_18MutationDispatcherERKNS_14FuzzingOptionsE, symObjAddr: 0x53C, symBinAddr: 0x100018844, symSize: 0x1F8 }
  - { offset: 0x12A593, size: 0x8, addend: 0x0, symName: __ZN6fuzzer14FuzzingOptionsC2ERKS0_, symObjAddr: 0x4704, symBinAddr: 0x10001CA0C, symSize: 0x25C }
  - { offset: 0x12AA0A, size: 0x8, addend: 0x0, symName: __ZN6fuzzer6Fuzzer19StaticDeathCallbackEv, symObjAddr: 0x734, symBinAddr: 0x100018A3C, symSize: 0x34 }
  - { offset: 0x12AA63, size: 0x8, addend: 0x0, symName: __ZN6fuzzer6Fuzzer23AllocateCurrentUnitDataEv, symObjAddr: 0x768, symBinAddr: 0x100018A70, symSize: 0x3C }
  - { offset: 0x12AA85, size: 0x8, addend: 0x0, symName: __ZN6fuzzer6FuzzerC1EPFiPKhmERNS_11InputCorpusERNS_18MutationDispatcherERKNS_14FuzzingOptionsE, symObjAddr: 0x7A4, symBinAddr: 0x100018AAC, symSize: 0x4 }
  - { offset: 0x12AAEB, size: 0x8, addend: 0x0, symName: __ZN6fuzzer6FuzzerC1EPFiPKhmERNS_11InputCorpusERNS_18MutationDispatcherERKNS_14FuzzingOptionsE, symObjAddr: 0x7A4, symBinAddr: 0x100018AAC, symSize: 0x4 }
  - { offset: 0x12AB1A, size: 0x8, addend: 0x0, symName: __ZN6fuzzer6Fuzzer13DeathCallbackEv, symObjAddr: 0x7A8, symBinAddr: 0x100018AB0, symSize: 0x2C }
  - { offset: 0x12AE2F, size: 0x8, addend: 0x0, symName: __ZN6fuzzer6Fuzzer19StaticAlarmCallbackEv, symObjAddr: 0xA68, symBinAddr: 0x100018D70, symSize: 0xC }
  - { offset: 0x12AE54, size: 0x8, addend: 0x0, symName: __ZN6fuzzer6Fuzzer13AlarmCallbackEv, symObjAddr: 0xA74, symBinAddr: 0x100018D7C, symSize: 0x138 }
  - { offset: 0x12AFA9, size: 0x8, addend: 0x0, symName: __ZN6fuzzer6Fuzzer25StaticCrashSignalCallbackEv, symObjAddr: 0xBAC, symBinAddr: 0x100018EB4, symSize: 0xC }
  - { offset: 0x12AFCD, size: 0x8, addend: 0x0, symName: __ZN6fuzzer6Fuzzer25StaticCrashSignalCallbackEv, symObjAddr: 0xBAC, symBinAddr: 0x100018EB4, symSize: 0xC }
  - { offset: 0x12AFF1, size: 0x8, addend: 0x0, symName: __ZN6fuzzer6Fuzzer13CrashCallbackEv, symObjAddr: 0xBB8, symBinAddr: 0x100018EC0, symSize: 0x90 }
  - { offset: 0x12B098, size: 0x8, addend: 0x0, symName: __ZN6fuzzer6Fuzzer18StaticExitCallbackEv, symObjAddr: 0xC48, symBinAddr: 0x100018F50, symSize: 0xC }
  - { offset: 0x12B0A3, size: 0x8, addend: 0x0, symName: __ZN6fuzzer6Fuzzer18StaticExitCallbackEv, symObjAddr: 0xC48, symBinAddr: 0x100018F50, symSize: 0xC }
  - { offset: 0x12B0C7, size: 0x8, addend: 0x0, symName: __ZN6fuzzer6Fuzzer12ExitCallbackEv, symObjAddr: 0xC54, symBinAddr: 0x100018F5C, symSize: 0x94 }
  - { offset: 0x12B160, size: 0x8, addend: 0x0, symName: __ZN6fuzzer6Fuzzer23StaticInterruptCallbackEv, symObjAddr: 0xCE8, symBinAddr: 0x100018FF0, symSize: 0x14 }
  - { offset: 0x12B16B, size: 0x8, addend: 0x0, symName: __ZN6fuzzer6Fuzzer23StaticInterruptCallbackEv, symObjAddr: 0xCE8, symBinAddr: 0x100018FF0, symSize: 0x14 }
  - { offset: 0x12B185, size: 0x8, addend: 0x0, symName: __ZN6fuzzer6Fuzzer17InterruptCallbackEv, symObjAddr: 0xCFC, symBinAddr: 0x100019004, symSize: 0x78 }
  - { offset: 0x12B190, size: 0x8, addend: 0x0, symName: __ZN6fuzzer6Fuzzer17InterruptCallbackEv, symObjAddr: 0xCFC, symBinAddr: 0x100019004, symSize: 0x78 }
  - { offset: 0x12B260, size: 0x8, addend: 0x0, symName: __ZN6fuzzer6Fuzzer26StaticGracefulExitCallbackEv, symObjAddr: 0xD74, symBinAddr: 0x10001907C, symSize: 0x1C }
  - { offset: 0x12B26B, size: 0x8, addend: 0x0, symName: __ZN6fuzzer6Fuzzer26StaticGracefulExitCallbackEv, symObjAddr: 0xD74, symBinAddr: 0x10001907C, symSize: 0x1C }
  - { offset: 0x12B290, size: 0x8, addend: 0x0, symName: __ZN6fuzzer6Fuzzer28StaticFileSizeExceedCallbackEv, symObjAddr: 0xD90, symBinAddr: 0x100019098, symSize: 0x28 }
  - { offset: 0x12B2C6, size: 0x8, addend: 0x0, symName: __ZN6fuzzer6Fuzzer19MaybeExitGracefullyEv, symObjAddr: 0xDB8, symBinAddr: 0x1000190C0, symSize: 0x74 }
  - { offset: 0x12B2E5, size: 0x8, addend: 0x0, symName: __ZN6fuzzer6Fuzzer19MaybeExitGracefullyEv, symObjAddr: 0xDB8, symBinAddr: 0x1000190C0, symSize: 0x74 }
  - { offset: 0x12B353, size: 0x8, addend: 0x0, symName: __ZN6fuzzer6Fuzzer17InterruptExitCodeEv, symObjAddr: 0xE2C, symBinAddr: 0x100019134, symSize: 0x10 }
  - { offset: 0x12B364, size: 0x8, addend: 0x0, symName: __ZN6fuzzer6Fuzzer17InterruptExitCodeEv, symObjAddr: 0xE2C, symBinAddr: 0x100019134, symSize: 0x10 }
  - { offset: 0x12B37B, size: 0x8, addend: 0x0, symName: __ZN6fuzzer6Fuzzer16RssLimitCallbackEv, symObjAddr: 0xE3C, symBinAddr: 0x100019144, symSize: 0xA0 }
  - { offset: 0x12B431, size: 0x8, addend: 0x0, symName: __ZN6fuzzer6Fuzzer10PrintStatsEPKcS2_mm, symObjAddr: 0xEDC, symBinAddr: 0x1000191E4, symSize: 0x408 }
  - { offset: 0x12B5D4, size: 0x8, addend: 0x0, symName: __ZN6fuzzer6Fuzzer10PrintStatsEPKcS2_mm, symObjAddr: 0xEDC, symBinAddr: 0x1000191E4, symSize: 0x408 }
  - { offset: 0x12BA81, size: 0x8, addend: 0x0, symName: __ZN6fuzzer6Fuzzer14SetMaxInputLenEm, symObjAddr: 0x13AC, symBinAddr: 0x1000196B4, symSize: 0x58 }
  - { offset: 0x12BADA, size: 0x8, addend: 0x0, symName: __ZN6fuzzer6Fuzzer17SetMaxMutationLenEm, symObjAddr: 0x1404, symBinAddr: 0x10001970C, symSize: 0x8 }
  - { offset: 0x12C750, size: 0x8, addend: 0x0, symName: __ZN6fuzzer6Fuzzer18RereadOutputCorpusEm, symObjAddr: 0x172C, symBinAddr: 0x100019A34, symSize: 0x2D0 }
  - { offset: 0x12C7BE, size: 0x8, addend: 0x0, symName: __ZN6fuzzer6Fuzzer18RereadOutputCorpusEm, symObjAddr: 0x172C, symBinAddr: 0x100019A34, symSize: 0x2D0 }
  - { offset: 0x12C7DE, size: 0x8, addend: 0x0, symName: __ZN6fuzzer6Fuzzer18RereadOutputCorpusEm, symObjAddr: 0x172C, symBinAddr: 0x100019A34, symSize: 0x2D0 }
  - { offset: 0x12C7FE, size: 0x8, addend: 0x0, symName: __ZN6fuzzer6Fuzzer18RereadOutputCorpusEm, symObjAddr: 0x172C, symBinAddr: 0x100019A34, symSize: 0x2D0 }
  - { offset: 0x12D2AC, size: 0x8, addend: 0x0, symName: __ZN6fuzzer6Fuzzer6RunOneEPKhmbPNS_9InputInfoEbPb, symObjAddr: 0x19FC, symBinAddr: 0x100019D04, symSize: 0x514 }
  - { offset: 0x12E8F3, size: 0x8, addend: 0x0, symName: __ZN6fuzzer6Fuzzer28PrintPulseAndReportSlowInputEPKhm, symObjAddr: 0x1F10, symBinAddr: 0x10001A218, symSize: 0x1AC }
  - { offset: 0x12EB77, size: 0x8, addend: 0x0, symName: __ZN6fuzzer6Fuzzer15ExecuteCallbackEPKhm, symObjAddr: 0x217C, symBinAddr: 0x10001A484, symSize: 0x280 }
  - { offset: 0x12F39A, size: 0x8, addend: 0x0, symName: '__ZNK6fuzzer7TracePC15CollectFeaturesIZNS_6Fuzzer6RunOneEPKhmbPNS_9InputInfoEbPbE3$_0EEmT_', symObjAddr: 0x23FC, symBinAddr: 0x10001A704, symSize: 0x554 }
  - { offset: 0x12F3AA, size: 0x8, addend: 0x0, symName: '__ZNK6fuzzer7TracePC15CollectFeaturesIZNS_6Fuzzer6RunOneEPKhmbPNS_9InputInfoEbPbE3$_0EEmT_', symObjAddr: 0x23FC, symBinAddr: 0x10001A704, symSize: 0x554 }
  - { offset: 0x1302B7, size: 0x8, addend: 0x0, symName: __ZN6fuzzer11InputCorpus11AddToCorpusERKNSt3__16vectorIhNS1_9allocatorIhEEEEmbbbNS1_6chrono8durationIxNS1_5ratioILl1ELl1000000EEEEERKNS2_IjNS3_IjEEEERKNS_13DataFlowTraceEPKNS_9InputInfoE, symObjAddr: 0x2950, symBinAddr: 0x10001AC58, symSize: 0x204 }
  - { offset: 0x130308, size: 0x8, addend: 0x0, symName: __ZN6fuzzer6Fuzzer28PrintPulseAndReportSlowInputEPKhm, symObjAddr: 0x1F10, symBinAddr: 0x10001A218, symSize: 0x1AC }
  - { offset: 0x1308C7, size: 0x8, addend: 0x0, symName: __ZNSt3__16vectorIhNS_9allocatorIhEEEC1B8nn210108IPKhTnNS_9enable_ifIXaasr31__has_forward_iterator_categoryIT_EE5valuesr16is_constructibleIhNS_15iterator_traitsIS8_E9referenceEEE5valueEiE4typeELi0EEES8_S8_, symObjAddr: 0x20BC, symBinAddr: 0x10001A3C4, symSize: 0xC0 }
  - { offset: 0x1308D2, size: 0x8, addend: 0x0, symName: __ZNSt3__16vectorIhNS_9allocatorIhEEEC1B8nn210108IPKhTnNS_9enable_ifIXaasr31__has_forward_iterator_categoryIT_EE5valuesr16is_constructibleIhNS_15iterator_traitsIS8_E9referenceEEE5valueEiE4typeELi0EEES8_S8_, symObjAddr: 0x20BC, symBinAddr: 0x10001A3C4, symSize: 0xC0 }
  - { offset: 0x130BA9, size: 0x8, addend: 0x0, symName: __ZN6fuzzer6Fuzzer15ExecuteCallbackEPKhm, symObjAddr: 0x217C, symBinAddr: 0x10001A484, symSize: 0x280 }
  - { offset: 0x130BB4, size: 0x8, addend: 0x0, symName: __ZN6fuzzer11InputCorpus7ReplaceEPNS_9InputInfoERKNSt3__16vectorIhNS3_9allocatorIhEEEENS3_6chrono8durationIxNS3_5ratioILl1ELl1000000EEEEE, symObjAddr: 0x2B54, symBinAddr: 0x10001AE5C, symSize: 0xF8 }
  - { offset: 0x131069, size: 0x8, addend: 0x0, symName: __ZN6fuzzer11InputCorpus11AddToCorpusERKNSt3__16vectorIhNS1_9allocatorIhEEEEmbbbNS1_6chrono8durationIxNS1_5ratioILl1ELl1000000EEEEERKNS2_IjNS3_IjEEEERKNS_13DataFlowTraceEPKNS_9InputInfoE, symObjAddr: 0x2950, symBinAddr: 0x10001AC58, symSize: 0x204 }
  - { offset: 0x132150, size: 0x8, addend: 0x0, symName: __ZN6fuzzer11InputCorpus10DeleteFileERKNS_9InputInfoE, symObjAddr: 0x56B4, symBinAddr: 0x10001D5BC, symSize: 0xB8 }
  - { offset: 0x13242F, size: 0x8, addend: 0x0, symName: __ZN6fuzzer11InputCorpus14AddRareFeatureEj, symObjAddr: 0x845C, symBinAddr: 0x10001F4A4, symSize: 0x440 }
  - { offset: 0x132ED0, size: 0x8, addend: 0x0, symName: __ZNSt3__16vectorINS_4pairIjtEENS_9allocatorIS2_EEE6insertENS_11__wrap_iterIPKS2_EEOS2_, symObjAddr: 0x8994, symBinAddr: 0x10001F9DC, symSize: 0x200 }
  - { offset: 0x1336D8, size: 0x8, addend: 0x0, symName: __ZNSt3__16vectorINS_4pairIjtEENS_9allocatorIS2_EEE20__throw_length_errorB8nn210108Ev, symObjAddr: 0x8B94, symBinAddr: 0x10001FBDC, symSize: 0x14 }
  - { offset: 0x1336E3, size: 0x8, addend: 0x0, symName: __ZNSt3__16vectorINS_4pairIjtEENS_9allocatorIS2_EEE9push_backB8nn210108EOS2_, symObjAddr: 0x889C, symBinAddr: 0x10001F8E4, symSize: 0xF8 }
  - { offset: 0x133B08, size: 0x8, addend: 0x0, symName: __ZNSt3__16vectorINS_4pairIjtEENS_9allocatorIS2_EEE6insertENS_11__wrap_iterIPKS2_EEOS2_, symObjAddr: 0x8994, symBinAddr: 0x10001F9DC, symSize: 0x200 }
  - { offset: 0x133B13, size: 0x8, addend: 0x0, symName: '__ZZN6fuzzer6Fuzzer6RunOneEPKhmbPNS_9InputInfoEbPbENK3$_0clEj', symObjAddr: 0x800C, symBinAddr: 0x10001F054, symSize: 0x114 }
  - { offset: 0x133E4F, size: 0x8, addend: 0x0, symName: __ZNSt3__112__hash_tableINS_12basic_stringIcNS_11char_traitsIcEENS_9allocatorIcEEEENS_4hashIS6_EENS_8equal_toIS6_EENS4_IS6_EEE25__emplace_unique_key_argsIS6_JRKS6_EEENS_4pairINS_15__hash_iteratorIPNS_11__hash_nodeIS6_PvEEEEbEERKT_DpOT0_, symObjAddr: 0x4F28, symBinAddr: 0x10001CFFC, symSize: 0x3E4 }
  - { offset: 0x134095, size: 0x8, addend: 0x0, symName: __ZNSt3__16vectorIPN6fuzzer9InputInfoENS_9allocatorIS3_EEE9push_backB8nn210108EOS3_, symObjAddr: 0x4B3C, symBinAddr: 0x10001CC68, symSize: 0xF8 }
  - { offset: 0x1344BA, size: 0x8, addend: 0x0, symName: __ZNSt3__16vectorIPN6fuzzer9InputInfoENS_9allocatorIS3_EEE20__throw_length_errorB8nn210108Ev, symObjAddr: 0x4C34, symBinAddr: 0x10001CD60, symSize: 0x14 }
  - { offset: 0x1344C5, size: 0x8, addend: 0x0, symName: __ZNSt3__16vectorIhNS_9allocatorIhEEE18__assign_with_sizeB8nn210108IPhS5_EEvT_T0_l, symObjAddr: 0x4C78, symBinAddr: 0x10001CD74, symSize: 0x13C }
  - { offset: 0x134EDC, size: 0x8, addend: 0x0, symName: __ZNSt3__16vectorIjNS_9allocatorIjEEE18__assign_with_sizeB8nn210108IPjS5_EEvT_T0_l, symObjAddr: 0x4DC8, symBinAddr: 0x10001CEB0, symSize: 0x14C }
  - { offset: 0x135933, size: 0x8, addend: 0x0, symName: __ZNSt3__112__hash_tableINS_12basic_stringIcNS_11char_traitsIcEENS_9allocatorIcEEEENS_4hashIS6_EENS_8equal_toIS6_EENS4_IS6_EEE25__emplace_unique_key_argsIS6_JRKS6_EEENS_4pairINS_15__hash_iteratorIPNS_11__hash_nodeIS6_PvEEEEbEERKT_DpOT0_, symObjAddr: 0x4F28, symBinAddr: 0x10001CFFC, symSize: 0x3E4 }
  - { offset: 0x136109, size: 0x8, addend: 0x0, symName: __ZNKSt3__112__hash_tableINS_17__hash_value_typeINS_12basic_stringIcNS_11char_traitsIcEENS_9allocatorIcEEEENS_6vectorIhNS5_IhEEEEEENS_22__unordered_map_hasherIS7_NS_4pairIKS7_SA_EENS_4hashIS7_EENS_8equal_toIS7_EELb1EEENS_21__unordered_map_equalIS7_SF_SJ_SH_Lb1EEENS5_ISF_EEE4findIS7_EENS_21__hash_const_iteratorIPNS_11__hash_nodeISB_PvEEEERKT_, symObjAddr: 0x54D8, symBinAddr: 0x10001D3E0, symSize: 0x1DC }
  - { offset: 0x1365A2, size: 0x8, addend: 0x0, symName: __ZNSt3__112__hash_tableINS_12basic_stringIcNS_11char_traitsIcEENS_9allocatorIcEEEENS_4hashIS6_EENS_8equal_toIS6_EENS4_IS6_EEE4findIS6_EENS_15__hash_iteratorIPNS_11__hash_nodeIS6_PvEEEERKT_, symObjAddr: 0x576C, symBinAddr: 0x10001D674, symSize: 0x1DC }
  - { offset: 0x13691D, size: 0x8, addend: 0x0, symName: __ZNSt3__112__hash_tableINS_12basic_stringIcNS_11char_traitsIcEENS_9allocatorIcEEEENS_4hashIS6_EENS_8equal_toIS6_EENS4_IS6_EEE5eraseENS_21__hash_const_iteratorIPNS_11__hash_nodeIS6_PvEEEE, symObjAddr: 0x5948, symBinAddr: 0x10001D850, symSize: 0x170 }
  - { offset: 0x13724D, size: 0x8, addend: 0x0, symName: __ZN6fuzzer6Fuzzer20TPCUpdateObservedPCsEv, symObjAddr: 0x2CEC, symBinAddr: 0x10001AFF4, symSize: 0xC }
  - { offset: 0x137276, size: 0x8, addend: 0x0, symName: __ZNK6fuzzer6Fuzzer28GetCurrentUnitInFuzzingTheadEPPKh, symObjAddr: 0x2CF8, symBinAddr: 0x10001B000, symSize: 0x10 }
  - { offset: 0x137314, size: 0x8, addend: 0x0, symName: __ZN6fuzzer6Fuzzer22CrashOnOverwrittenDataEv, symObjAddr: 0x2D08, symBinAddr: 0x10001B010, symSize: 0x58 }
  - { offset: 0x13739B, size: 0x8, addend: 0x0, symName: __ZN6fuzzer6Fuzzer19WriteToOutputCorpusERKNSt3__16vectorIhNS1_9allocatorIhEEEE, symObjAddr: 0x2D60, symBinAddr: 0x10001B068, symSize: 0x194 }
  - { offset: 0x137453, size: 0x8, addend: 0x0, symName: __ZN6fuzzer6Fuzzer19WriteToOutputCorpusERKNSt3__16vectorIhNS1_9allocatorIhEEEE, symObjAddr: 0x2D60, symBinAddr: 0x10001B068, symSize: 0x194 }
  - { offset: 0x137944, size: 0x8, addend: 0x0, symName: __ZN6fuzzer6Fuzzer21PrintStatusForNewUnitERKNSt3__16vectorIhNS1_9allocatorIhEEEEPKc, symObjAddr: 0x2EF4, symBinAddr: 0x10001B1FC, symSize: 0x184 }
  - { offset: 0x13799D, size: 0x8, addend: 0x0, symName: __ZN6fuzzer6Fuzzer21PrintStatusForNewUnitERKNSt3__16vectorIhNS1_9allocatorIhEEEEPKc, symObjAddr: 0x2EF4, symBinAddr: 0x10001B1FC, symSize: 0x184 }
  - { offset: 0x137AE7, size: 0x8, addend: 0x0, symName: __ZN6fuzzer6Fuzzer17ReportNewCoverageEPNS_9InputInfoERKNSt3__16vectorIhNS3_9allocatorIhEEEE, symObjAddr: 0x3078, symBinAddr: 0x10001B380, symSize: 0x1F4 }
  - { offset: 0x137D93, size: 0x8, addend: 0x0, symName: __ZN6fuzzer6Fuzzer23TryDetectingAMemoryLeakEPKhmb, symObjAddr: 0x326C, symBinAddr: 0x10001B574, symSize: 0x130 }
  - { offset: 0x137EEE, size: 0x8, addend: 0x0, symName: __ZN6fuzzer6Fuzzer16MutateAndTestOneEv, symObjAddr: 0x339C, symBinAddr: 0x10001B6A4, symSize: 0x2A4 }
  - { offset: 0x13807E, size: 0x8, addend: 0x0, symName: __ZN6fuzzer6Fuzzer16MutateAndTestOneEv, symObjAddr: 0x339C, symBinAddr: 0x10001B6A4, symSize: 0x2A4 }
  - { offset: 0x1389B0, size: 0x8, addend: 0x0, symName: __ZN6fuzzer6Fuzzer14PurgeAllocatorEv, symObjAddr: 0x3640, symBinAddr: 0x10001B948, symSize: 0x9C }
  - { offset: 0x1389BB, size: 0x8, addend: 0x0, symName: __ZN6fuzzer11InputCorpus21ChooseUnitIdxToMutateERNS_6RandomE, symObjAddr: 0x5E78, symBinAddr: 0x10001D9C0, symSize: 0x128 }
  - { offset: 0x138EA1, size: 0x8, addend: 0x0, symName: __ZN6fuzzer6Fuzzer14PurgeAllocatorEv, symObjAddr: 0x3640, symBinAddr: 0x10001B948, symSize: 0x9C }
  - { offset: 0x139524, size: 0x8, addend: 0x0, symName: __ZN6fuzzer6Fuzzer25ReadAndExecuteSeedCorporaERNSt3__16vectorINS_9SizedFileENS1_9allocatorIS3_EEEE, symObjAddr: 0x36DC, symBinAddr: 0x10001B9E4, symSize: 0x80C }
  - { offset: 0x13B141, size: 0x8, addend: 0x0, symName: __ZN6fuzzer6Fuzzer4LoopERNSt3__16vectorINS_9SizedFileENS1_9allocatorIS3_EEEE, symObjAddr: 0x3EE8, symBinAddr: 0x10001C1F0, symSize: 0x490 }
  - { offset: 0x13BF50, size: 0x8, addend: 0x0, symName: __ZN6fuzzer6Fuzzer17MinimizeCrashLoopERKNSt3__16vectorIhNS1_9allocatorIhEEEE, symObjAddr: 0x4378, symBinAddr: 0x10001C680, symSize: 0x370 }
  - { offset: 0x13C7E8, size: 0x8, addend: 0x0, symName: _LLVMFuzzerMutate, symObjAddr: 0x46E8, symBinAddr: 0x10001C9F0, symSize: 0x1C }
  - { offset: 0x13C807, size: 0x8, addend: 0x0, symName: _LLVMFuzzerMutate, symObjAddr: 0x46E8, symBinAddr: 0x10001C9F0, symSize: 0x1C }
  - { offset: 0x13CC85, size: 0x8, addend: 0x0, symName: __ZNSt3__16vectorIPN6fuzzer9InputInfoENS_9allocatorIS3_EEE20__throw_length_errorB8nn210108Ev, symObjAddr: 0x4C34, symBinAddr: 0x10001CD60, symSize: 0x14 }
  - { offset: 0x13D225, size: 0x8, addend: 0x0, symName: __ZNKSt3__112__hash_tableINS_17__hash_value_typeINS_12basic_stringIcNS_11char_traitsIcEENS_9allocatorIcEEEENS_6vectorIhNS5_IhEEEEEENS_22__unordered_map_hasherIS7_NS_4pairIKS7_SA_EENS_4hashIS7_EENS_8equal_toIS7_EELb1EEENS_21__unordered_map_equalIS7_SF_SJ_SH_Lb1EEENS5_ISF_EEE4findIS7_EENS_21__hash_const_iteratorIPNS_11__hash_nodeISB_PvEEEERKT_, symObjAddr: 0x54D8, symBinAddr: 0x10001D3E0, symSize: 0x1DC }
  - { offset: 0x13D82D, size: 0x8, addend: 0x0, symName: __ZN6fuzzer11InputCorpus24UpdateCorpusDistributionERNS_6RandomE, symObjAddr: 0x5FA0, symBinAddr: 0x10001DAE8, symSize: 0x5EC }
  - { offset: 0x13E856, size: 0x8, addend: 0x0, symName: __ZN6fuzzer9InputInfo12UpdateEnergyEmbNSt3__16chrono8durationIxNS1_5ratioILl1ELl1000000EEEEE, symObjAddr: 0x658C, symBinAddr: 0x10001E0D4, symSize: 0x178 }
  - { offset: 0x13EEC7, size: 0x8, addend: 0x0, symName: __ZNSt3__131piecewise_constant_distributionIdE10param_typeaSERKS2_, symObjAddr: 0x6F90, symBinAddr: 0x10001E24C, symSize: 0x1D0 }
  - { offset: 0x13FA5E, size: 0x8, addend: 0x0, symName: __ZNSt3__16vectorIdNS_9allocatorIdEEE18__assign_with_sizeB8nn210108IPdS5_EEvT_T0_l, symObjAddr: 0x7160, symBinAddr: 0x10001E41C, symSize: 0x14C }
  - { offset: 0x1409D3, size: 0x8, addend: 0x0, symName: __ZNSt3__16vectorIdNS_9allocatorIdEEE18__assign_with_sizeB8nn210108IPdS5_EEvT_T0_l, symObjAddr: 0x7160, symBinAddr: 0x10001E41C, symSize: 0x14C }
  - { offset: 0x141507, size: 0x8, addend: 0x0, symName: __ZN6fuzzer11InputCorpus10AddFeatureEmjb, symObjAddr: 0x8120, symBinAddr: 0x10001F168, symSize: 0x120 }
  - { offset: 0x141770, size: 0x8, addend: 0x0, symName: __ZNSt3__16vectorIjNS_9allocatorIjEEE9push_backB8nn210108ERKj, symObjAddr: 0x8240, symBinAddr: 0x10001F288, symSize: 0xF8 }
  - { offset: 0x141B89, size: 0x8, addend: 0x0, symName: __ZN6fuzzer11InputCorpus22UpdateFeatureFrequencyEPNS_9InputInfoEm, symObjAddr: 0x8338, symBinAddr: 0x10001F380, symSize: 0x124 }
  - { offset: 0x141B94, size: 0x8, addend: 0x0, symName: __ZN6fuzzer11InputCorpus22UpdateFeatureFrequencyEPNS_9InputInfoEm, symObjAddr: 0x8338, symBinAddr: 0x10001F380, symSize: 0x124 }
  - { offset: 0x142454, size: 0x8, addend: 0x0, symName: __ZNSt3__16vectorINS_4pairIjtEENS_9allocatorIS2_EEE20__throw_length_errorB8nn210108Ev, symObjAddr: 0x8B94, symBinAddr: 0x10001FBDC, symSize: 0x14 }
  - { offset: 0x14246C, size: 0x8, addend: 0x0, symName: __ZNSt3__124uniform_int_distributionIlEclIN6fuzzer6RandomEEElRT_RKNS1_10param_typeE, symObjAddr: 0x8BA8, symBinAddr: 0x10001FBF0, symSize: 0x1B4 }
  - { offset: 0x1426F8, size: 0x8, addend: 0x0, symName: __ZNSt3__125__independent_bits_engineIN6fuzzer6RandomEmE6__evalENS_17integral_constantIbLb1EEE, symObjAddr: 0x8D5C, symBinAddr: 0x10001FDA4, symSize: 0x1F4 }
  - { offset: 0x142D46, size: 0x8, addend: 0x0, symName: __GLOBAL__sub_I_FuzzerLoop.cpp, symObjAddr: 0xA170, symBinAddr: 0x100021158, symSize: 0x44 }
  - { offset: 0x144C09, size: 0x8, addend: 0x0, symName: __ZN6fuzzer6Merger5ParseERKNSt3__112basic_stringIcNS1_11char_traitsIcEENS1_9allocatorIcEEEEb, symObjAddr: 0x0, symBinAddr: 0x10002119C, symSize: 0x188 }
  - { offset: 0x154D90, size: 0x8, addend: 0x0, symName: '__ZNSt3__111__introsortINS_17_ClassicAlgPolicyERZN6fuzzer6Merger5MergeERKNS_3setIjNS_4lessIjEENS_9allocatorIjEEEEPS9_SB_SC_PNS_6vectorINS_12basic_stringIcNS_11char_traitsIcEENS7_IcEEEENS7_ISI_EEEEE3$_0PNS2_13MergeFileInfoELb0EEEvT1_SQ_T0_NS_15iterator_traitsISQ_E15difference_typeEb', symObjAddr: 0x925C, symBinAddr: 0x100028124, symSize: 0x1430 }
  - { offset: 0x159F92, size: 0x8, addend: 0x0, symName: '__ZNSt3__127__insertion_sort_incompleteB8nn210108INS_17_ClassicAlgPolicyERZN6fuzzer6Merger5MergeERKNS_3setIjNS_4lessIjEENS_9allocatorIjEEEEPS9_SB_SC_PNS_6vectorINS_12basic_stringIcNS_11char_traitsIcEENS7_IcEEEENS7_ISI_EEEEE3$_0PNS2_13MergeFileInfoEEEbT1_SQ_T0_', symObjAddr: 0xAA08, symBinAddr: 0x1000298D0, symSize: 0x35C }
  - { offset: 0x16738E, size: 0x8, addend: 0x0, symName: __ZNSt3__113__tree_removeB8nn210108IPNS_16__tree_node_baseIPvEEEEvT_S5_, symObjAddr: 0xC958, symBinAddr: 0x10002B6F0, symSize: 0x424 }
  - { offset: 0x168DDD, size: 0x8, addend: 0x0, symName: __ZNSt3__134__uninitialized_allocator_relocateB8nn210108INS_9allocatorIN6fuzzer13MergeFileInfoEEEPS3_EEvRT_T0_S8_S8_, symObjAddr: 0x8A8C, symBinAddr: 0x100027F88, symSize: 0xF8 }
  - { offset: 0x168E3C, size: 0x8, addend: 0x0, symName: __ZNSt3__134__uninitialized_allocator_relocateB8nn210108INS_9allocatorIN6fuzzer13MergeFileInfoEEEPS3_EEvRT_T0_S8_S8_, symObjAddr: 0x8A8C, symBinAddr: 0x100027F88, symSize: 0xF8 }
  - { offset: 0x16A06E, size: 0x8, addend: 0x0, symName: '__ZNSt3__17__sort3B8nn210108INS_17_ClassicAlgPolicyERZN6fuzzer6Merger5MergeERKNS_3setIjNS_4lessIjEENS_9allocatorIjEEEEPS9_SB_SC_PNS_6vectorINS_12basic_stringIcNS_11char_traitsIcEENS7_IcEEEENS7_ISI_EEEEE3$_0PNS2_13MergeFileInfoETnNS_9enable_ifIXnt21__use_branchless_sortIT0_T1_EEiE4typeELi0EEEbSS_SS_SS_SR_', symObjAddr: 0xA68C, symBinAddr: 0x100029554, symSize: 0x150 }
  - { offset: 0x16A469, size: 0x8, addend: 0x0, symName: __ZNSt3__14swapB8nn210108IN6fuzzer13MergeFileInfoEEENS_9enable_ifIXaasr21is_move_constructibleIT_EE5valuesr18is_move_assignableIS4_EE5valueEvE4typeERS4_S7_, symObjAddr: 0xAD64, symBinAddr: 0x100029C2C, symSize: 0x168 }
  - { offset: 0x16AD0C, size: 0x8, addend: 0x0, symName: '__ZNSt3__17__sort5B8nn210108INS_17_ClassicAlgPolicyERZN6fuzzer6Merger5MergeERKNS_3setIjNS_4lessIjEENS_9allocatorIjEEEEPS9_SB_SC_PNS_6vectorINS_12basic_stringIcNS_11char_traitsIcEENS7_IcEEEENS7_ISI_EEEEE3$_0PNS2_13MergeFileInfoETnNS_9enable_ifIXnt21__use_branchless_sortIT0_T1_EEiE4typeELi0EEEvSS_SS_SS_SS_SS_SR_', symObjAddr: 0xA8CC, symBinAddr: 0x100029794, symSize: 0x13C }
  - { offset: 0x16B0A2, size: 0x8, addend: 0x0, symName: '__ZNSt3__17__sort4B8nn210108INS_17_ClassicAlgPolicyERZN6fuzzer6Merger5MergeERKNS_3setIjNS_4lessIjEENS_9allocatorIjEEEEPS9_SB_SC_PNS_6vectorINS_12basic_stringIcNS_11char_traitsIcEENS7_IcEEEENS7_ISI_EEEEE3$_0PNS2_13MergeFileInfoETnNS_9enable_ifIXnt21__use_branchless_sortIT0_T1_EEiE4typeELi0EEEvSS_SS_SS_SS_SR_', symObjAddr: 0xA7DC, symBinAddr: 0x1000296A4, symSize: 0xF0 }
  - { offset: 0x16E52B, size: 0x8, addend: 0x0, symName: '__ZN6fuzzer18ForEachNonZeroByteIZNKS_7TracePC15CollectFeaturesIZNS_6Fuzzer31CrashResistantMergeInternalStepERKNSt3__112basic_stringIcNS4_11char_traitsIcEENS4_9allocatorIcEEEEbE3$_1EEmT_EUlmmhE_EEmPKhSH_mSE_', symObjAddr: 0xB150, symBinAddr: 0x100029EE8, symSize: 0x714 }
  - { offset: 0x16F11A, size: 0x8, addend: 0x0, symName: '__ZN6fuzzer18ForEachNonZeroByteIZNKS_7TracePC15CollectFeaturesIZNS_6Fuzzer31CrashResistantMergeInternalStepERKNSt3__112basic_stringIcNS4_11char_traitsIcEENS4_9allocatorIcEEEEbE3$_2EEmT_EUlmmhE_EEmPKhSH_mSE_', symObjAddr: 0xB9C0, symBinAddr: 0x10002A758, symSize: 0xC5C }
  - { offset: 0x1701F6, size: 0x8, addend: 0x0, symName: __ZN6fuzzer19CrashResistantMergeERKNSt3__16vectorINS0_12basic_stringIcNS0_11char_traitsIcEENS0_9allocatorIcEEEENS5_IS7_EEEERKNS1_INS_9SizedFileENS5_ISC_EEEESG_PS9_RKNS0_3setIjNS0_4lessIjEENS5_IjEEEEPSM_SO_SP_RKS7_bb, symObjAddr: 0x59D8, symBinAddr: 0x1000265E0, symSize: 0x16EC }
  - { offset: 0x177291, size: 0x8, addend: 0x0, symName: __ZN6fuzzer6Merger5ParseERKNSt3__112basic_stringIcNS1_11char_traitsIcEENS1_9allocatorIcEEEEb, symObjAddr: 0x0, symBinAddr: 0x10002119C, symSize: 0x188 }
  - { offset: 0x177577, size: 0x8, addend: 0x0, symName: __ZN6fuzzer6Merger5ParseERNSt3__113basic_istreamIcNS1_11char_traitsIcEEEEb, symObjAddr: 0x188, symBinAddr: 0x100021324, symSize: 0xB10 }
  - { offset: 0x17916D, size: 0x8, addend: 0x0, symName: __ZN6fuzzer6Merger11ParseOrExitERNSt3__113basic_istreamIcNS1_11char_traitsIcEEEEb, symObjAddr: 0xC98, symBinAddr: 0x100021E34, symSize: 0x2C }
  - { offset: 0x179BD0, size: 0x8, addend: 0x0, symName: __ZNSt3__16vectorIN6fuzzer13MergeFileInfoENS_9allocatorIS2_EEE6resizeEm, symObjAddr: 0xF90, symBinAddr: 0x100021E60, symSize: 0xCC }
  - { offset: 0x17A38B, size: 0x8, addend: 0x0, symName: __ZNK6fuzzer6Merger28ApproximateMemoryConsumptionEv, symObjAddr: 0x1324, symBinAddr: 0x100021F2C, symSize: 0xE8 }
  - { offset: 0x17AAA0, size: 0x8, addend: 0x0, symName: __ZN6fuzzer6Merger11ParseOrExitERNSt3__113basic_istreamIcNS1_11char_traitsIcEEEEb, symObjAddr: 0xC98, symBinAddr: 0x100021E34, symSize: 0x2C }
  - { offset: 0x17B19F, size: 0x8, addend: 0x0, symName: __ZNSt3__16vectorIN6fuzzer13MergeFileInfoENS_9allocatorIS2_EEE8__appendEm, symObjAddr: 0x88EC, symBinAddr: 0x100027DE8, symSize: 0x18C }
  - { offset: 0x17B316, size: 0x8, addend: 0x0, symName: __ZNSt3__16vectorIN6fuzzer13MergeFileInfoENS_9allocatorIS2_EEE8__appendEm, symObjAddr: 0x88EC, symBinAddr: 0x100027DE8, symSize: 0x18C }
  - { offset: 0x17B78D, size: 0x8, addend: 0x0, symName: __ZNSt3__16vectorIN6fuzzer13MergeFileInfoENS_9allocatorIS2_EEE20__throw_length_errorB8nn210108Ev, symObjAddr: 0x8A78, symBinAddr: 0x100027F74, symSize: 0x14 }
  - { offset: 0x17B868, size: 0x8, addend: 0x0, symName: __ZNK6fuzzer6Merger28ApproximateMemoryConsumptionEv, symObjAddr: 0x1324, symBinAddr: 0x100021F2C, symSize: 0xE8 }
  - { offset: 0x17B8BB, size: 0x8, addend: 0x0, symName: __ZNK6fuzzer6Merger28ApproximateMemoryConsumptionEv, symObjAddr: 0x1324, symBinAddr: 0x100021F2C, symSize: 0xE8 }
  - { offset: 0x17C250, size: 0x8, addend: 0x0, symName: __ZN6fuzzer6Merger5MergeERKNSt3__13setIjNS1_4lessIjEENS1_9allocatorIjEEEEPS7_S9_SA_PNS1_6vectorINS1_12basic_stringIcNS1_11char_traitsIcEENS5_IcEEEENS5_ISG_EEEE, symObjAddr: 0x140C, symBinAddr: 0x100022014, symSize: 0x11CC }
  - { offset: 0x17F4F1, size: 0x8, addend: 0x0, symName: __ZNK6fuzzer6Merger11AllFeaturesEv, symObjAddr: 0x25D8, symBinAddr: 0x1000231E0, symSize: 0x358 }
  - { offset: 0x17FBCD, size: 0x8, addend: 0x0, symName: __ZNSt3__16vectorIN6fuzzer13MergeFileInfoENS_9allocatorIS2_EEE16__destroy_vectorclB8nn210108Ev, symObjAddr: 0xAFFC, symBinAddr: 0x100029D94, symSize: 0xC4 }
  - { offset: 0x17FE86, size: 0x8, addend: 0x0, symName: __ZNK6fuzzer6Merger11AllFeaturesEv, symObjAddr: 0x25D8, symBinAddr: 0x1000231E0, symSize: 0x358 }
  - { offset: 0x18138A, size: 0x8, addend: 0x0, symName: __ZN6fuzzer6Fuzzer31CrashResistantMergeInternalStepERKNSt3__112basic_stringIcNS1_11char_traitsIcEENS1_9allocatorIcEEEEb, symObjAddr: 0x2930, symBinAddr: 0x100023538, symSize: 0xFEC }
  - { offset: 0x1841CA, size: 0x8, addend: 0x0, symName: '__ZNK6fuzzer7TracePC15CollectFeaturesIZNS_6Fuzzer31CrashResistantMergeInternalStepERKNSt3__112basic_stringIcNS3_11char_traitsIcEENS3_9allocatorIcEEEEbE3$_1EEmT_', symObjAddr: 0x391C, symBinAddr: 0x100024524, symSize: 0x4C0 }
  - { offset: 0x184BEE, size: 0x8, addend: 0x0, symName: '__ZNK6fuzzer7TracePC15CollectFeaturesIZNS_6Fuzzer31CrashResistantMergeInternalStepERKNSt3__112basic_stringIcNS3_11char_traitsIcEENS3_9allocatorIcEEEEbE3$_1EEmT_', symObjAddr: 0x391C, symBinAddr: 0x100024524, symSize: 0x4C0 }
  - { offset: 0x18564A, size: 0x8, addend: 0x0, symName: '__ZNK6fuzzer7TracePC15CollectFeaturesIZNS_6Fuzzer31CrashResistantMergeInternalStepERKNSt3__112basic_stringIcNS3_11char_traitsIcEENS3_9allocatorIcEEEEbE3$_2EEmT_', symObjAddr: 0x3DDC, symBinAddr: 0x1000249E4, symSize: 0x6A8 }
  - { offset: 0x18636F, size: 0x8, addend: 0x0, symName: __ZNSt3__16__treeImNS_4lessImEENS_9allocatorImEEE7destroyEPNS_11__tree_nodeImPvEE, symObjAddr: 0xB0C0, symBinAddr: 0x100029E58, symSize: 0x48 }
  - { offset: 0x186469, size: 0x8, addend: 0x0, symName: __ZNSt3__16__treeIPKN6fuzzer7TracePC12PCTableEntryENS_4lessIS5_EENS_9allocatorIS5_EEE7destroyEPNS_11__tree_nodeIS5_PvEE, symObjAddr: 0xB108, symBinAddr: 0x100029EA0, symSize: 0x48 }
  - { offset: 0x186563, size: 0x8, addend: 0x0, symName: __ZNSt3__16vectorIN6fuzzer13MergeFileInfoENS_9allocatorIS2_EEE16__destroy_vectorclB8nn210108Ev, symObjAddr: 0xAFFC, symBinAddr: 0x100029D94, symSize: 0xC4 }
  - { offset: 0x186FCB, size: 0x8, addend: 0x0, symName: '__ZZN6fuzzer6Fuzzer31CrashResistantMergeInternalStepERKNSt3__112basic_stringIcNS1_11char_traitsIcEENS1_9allocatorIcEEEEbENK3$_2clEm', symObjAddr: 0xC61C, symBinAddr: 0x10002B3B4, symSize: 0x140 }
  - { offset: 0x187A44, size: 0x8, addend: 0x0, symName: __ZN6fuzzer6Merger13SetCoverMergeERKNSt3__13setIjNS1_4lessIjEENS1_9allocatorIjEEEEPS7_S9_SA_PNS1_6vectorINS1_12basic_stringIcNS1_11char_traitsIcEENS5_IcEEEENS5_ISG_EEEE, symObjAddr: 0x4484, symBinAddr: 0x10002508C, symSize: 0x1554 }
  - { offset: 0x18B695, size: 0x8, addend: 0x0, symName: __ZNSt3__16vectorIbNS_9allocatorIbEEE18__construct_at_endB8nn210108Emb, symObjAddr: 0xC75C, symBinAddr: 0x10002B4F4, symSize: 0x1FC }
  - { offset: 0x18B6E2, size: 0x8, addend: 0x0, symName: __ZNSt3__16vectorIbNS_9allocatorIbEEE18__construct_at_endB8nn210108Emb, symObjAddr: 0xC75C, symBinAddr: 0x10002B4F4, symSize: 0x1FC }
  - { offset: 0x18B6FF, size: 0x8, addend: 0x0, symName: __ZNSt3__16vectorIbNS_9allocatorIbEEE18__construct_at_endB8nn210108Emb, symObjAddr: 0xC75C, symBinAddr: 0x10002B4F4, symSize: 0x1FC }
  - { offset: 0x18C7B3, size: 0x8, addend: 0x0, symName: __ZNSt3__16vectorIN6fuzzer13MergeFileInfoENS_9allocatorIS2_EEE18__assign_with_sizeB8nn210108IPS2_S7_EEvT_T0_l, symObjAddr: 0xCD7C, symBinAddr: 0x10002BB14, symSize: 0x2C0 }
  - { offset: 0x18D5EF, size: 0x8, addend: 0x0, symName: __ZNSt3__16vectorIN6fuzzer13MergeFileInfoENS_9allocatorIS2_EEE13__vdeallocateEv, symObjAddr: 0xD03C, symBinAddr: 0x10002BDD4, symSize: 0xB4 }
  - { offset: 0x18DB4A, size: 0x8, addend: 0x0, symName: __ZNSt3__113unordered_setINS_12basic_stringIcNS_11char_traitsIcEENS_9allocatorIcEEEENS_4hashIS6_EENS_8equal_toIS6_EENS4_IS6_EEEC2ERKSC_, symObjAddr: 0x7A4C, symBinAddr: 0x100027CCC, symSize: 0x11C }
  - { offset: 0x18EB01, size: 0x8, addend: 0x0, symName: __ZNSt3__16vectorIN6fuzzer13MergeFileInfoENS_9allocatorIS2_EEE18__insert_with_sizeB8nn210108INS_11__wrap_iterIPS2_EES9_EES9_NS7_IPKS2_EET_T0_l, symObjAddr: 0xD20C, symBinAddr: 0x10002BFA4, symSize: 0x354 }
  - { offset: 0x18F765, size: 0x8, addend: 0x0, symName: __ZNSt3__16vectorIN6fuzzer13MergeFileInfoENS_9allocatorIS2_EEE27__insert_assign_n_uncheckedB8nn210108INS_11__wrap_iterIPS2_EETnNS_9enable_ifIXntsr7is_sameIODTdeclsr3stdE7declvalIRT_EEEOS2_EE5valueEiE4typeELi0EEEvSB_lS8_, symObjAddr: 0xD560, symBinAddr: 0x10002C2F8, symSize: 0x14C }
  - { offset: 0x1903E5, size: 0x8, addend: 0x0, symName: __ZNSt3__113unordered_setINS_12basic_stringIcNS_11char_traitsIcEENS_9allocatorIcEEEENS_4hashIS6_EENS_8equal_toIS6_EENS4_IS6_EEEC2ERKSC_, symObjAddr: 0x7A4C, symBinAddr: 0x100027CCC, symSize: 0x11C }
  - { offset: 0x19151A, size: 0x8, addend: 0x0, symName: __ZNSt3__114__split_bufferIN6fuzzer13MergeFileInfoERNS_9allocatorIS2_EEED2Ev, symObjAddr: 0x8B84, symBinAddr: 0x100028080, symSize: 0xA4 }
  - { offset: 0x191A70, size: 0x8, addend: 0x0, symName: __ZNSt3__16vectorIN6fuzzer13MergeFileInfoENS_9allocatorIS2_EEE20__throw_length_errorB8nn210108Ev, symObjAddr: 0x8A78, symBinAddr: 0x100027F74, symSize: 0x14 }
  - { offset: 0x191A88, size: 0x8, addend: 0x0, symName: __ZNSt3__134__uninitialized_allocator_relocateB8nn210108INS_9allocatorIN6fuzzer13MergeFileInfoEEEPS3_EEvRT_T0_S8_S8_, symObjAddr: 0x8A8C, symBinAddr: 0x100027F88, symSize: 0xF8 }
  - { offset: 0x192221, size: 0x8, addend: 0x0, symName: '__ZZNK6fuzzer7TracePC15CollectFeaturesIZNS_6Fuzzer31CrashResistantMergeInternalStepERKNSt3__112basic_stringIcNS3_11char_traitsIcEENS3_9allocatorIcEEEEbE3$_1EEmT_ENKUlmmhE_clEmmh', symObjAddr: 0xB864, symBinAddr: 0x10002A5FC, symSize: 0x15C }
  - { offset: 0x192860, size: 0x8, addend: 0x0, symName: __ZNSt3__16vectorIN6fuzzer13MergeFileInfoENS_9allocatorIS2_EEE13__vdeallocateEv, symObjAddr: 0xD03C, symBinAddr: 0x10002BDD4, symSize: 0xB4 }
  - { offset: 0x192DDD, size: 0x8, addend: 0x0, symName: __ZN6fuzzer13MergeFileInfoC2ERKS0_, symObjAddr: 0xD0F0, symBinAddr: 0x10002BE88, symSize: 0x11C }
  - { offset: 0x19353F, size: 0x8, addend: 0x0, symName: __ZNSt3__16vectorIN6fuzzer13MergeFileInfoENS_9allocatorIS2_EEE18__insert_with_sizeB8nn210108INS_11__wrap_iterIPS2_EES9_EES9_NS7_IPKS2_EET_T0_l, symObjAddr: 0xD20C, symBinAddr: 0x10002BFA4, symSize: 0x354 }
  - { offset: 0x1937D1, size: 0x8, addend: 0x0, symName: __ZNKSt3__120__move_backward_implINS_17_ClassicAlgPolicyEEclB8nn210108IPN6fuzzer13MergeFileInfoES6_S6_EENS_4pairIT_T1_EES8_T0_S9_, symObjAddr: 0xD6AC, symBinAddr: 0x10002C444, symSize: 0x130 }
  - { offset: 0x193E49, size: 0x8, addend: 0x0, symName: __ZNSt3__16vectorIN6fuzzer13MergeFileInfoENS_9allocatorIS2_EEE27__insert_assign_n_uncheckedB8nn210108INS_11__wrap_iterIPS2_EETnNS_9enable_ifIXntsr7is_sameIODTdeclsr3stdE7declvalIRT_EEEOS2_EE5valueEiE4typeELi0EEEvSB_lS8_, symObjAddr: 0xD560, symBinAddr: 0x10002C2F8, symSize: 0x14C }
  - { offset: 0x193EA1, size: 0x8, addend: 0x0, symName: __ZNSt3__16vectorIN6fuzzer13MergeFileInfoENS_9allocatorIS2_EEE27__insert_assign_n_uncheckedB8nn210108INS_11__wrap_iterIPS2_EETnNS_9enable_ifIXntsr7is_sameIODTdeclsr3stdE7declvalIRT_EEEOS2_EE5valueEiE4typeELi0EEEvSB_lS8_, symObjAddr: 0xD560, symBinAddr: 0x10002C2F8, symSize: 0x14C }
  - { offset: 0x1965CF, size: 0x8, addend: 0x0, symName: __ZN6fuzzer18MutationDispatcherC2ERNS_6RandomERKNS_14FuzzingOptionsE, symObjAddr: 0x0, symBinAddr: 0x10002C574, symSize: 0x360 }
  - { offset: 0x1965E8, size: 0x8, addend: 0x0, symName: __ZN6fuzzer10Dictionary12kMaxDictSizeE, symObjAddr: 0x5688, symBinAddr: 0x10003C300, symSize: 0x0 }
  - { offset: 0x197274, size: 0x8, addend: 0x0, symName: __ZN6fuzzerL6RandChERNS_6RandomE, symObjAddr: 0x1AA8, symBinAddr: 0x10002E01C, symSize: 0xF0 }
  - { offset: 0x1972B5, size: 0x8, addend: 0x0, symName: __ZN6fuzzerL6RandChERNS_6RandomE, symObjAddr: 0x1AA8, symBinAddr: 0x10002E01C, symSize: 0xF0 }
  - { offset: 0x1972D1, size: 0x8, addend: 0x0, symName: __ZN6fuzzerL6RandChERNS_6RandomE, symObjAddr: 0x1AA8, symBinAddr: 0x10002E01C, symSize: 0xF0 }
  - { offset: 0x1972ED, size: 0x8, addend: 0x0, symName: __ZN6fuzzerL6RandChERNS_6RandomE, symObjAddr: 0x1AA8, symBinAddr: 0x10002E01C, symSize: 0xF0 }
  - { offset: 0x197505, size: 0x8, addend: 0x0, symName: __ZN6fuzzer19ChangeBinaryIntegerItEEmPhmRNS_6RandomE, symObjAddr: 0x33B4, symBinAddr: 0x10002F928, symSize: 0x230 }
  - { offset: 0x197A38, size: 0x8, addend: 0x0, symName: __ZN6fuzzer19ChangeBinaryIntegerIyEEmPhmRNS_6RandomE, symObjAddr: 0x2F60, symBinAddr: 0x10002F4D4, symSize: 0x22C }
  - { offset: 0x197F6B, size: 0x8, addend: 0x0, symName: __ZN6fuzzer19ChangeBinaryIntegerIhEEmPhmRNS_6RandomE, symObjAddr: 0x35E4, symBinAddr: 0x10002FB58, symSize: 0x200 }
  - { offset: 0x198480, size: 0x8, addend: 0x0, symName: __ZN6fuzzer19ChangeBinaryIntegerIjEEmPhmRNS_6RandomE, symObjAddr: 0x318C, symBinAddr: 0x10002F700, symSize: 0x228 }
  - { offset: 0x1A154C, size: 0x8, addend: 0x0, symName: __ZNSt3__16vectorIN6fuzzer18MutationDispatcher7MutatorENS_9allocatorIS3_EEE18__insert_with_sizeB8nn210108IPKS3_S9_EENS_11__wrap_iterIPS3_EENSA_IS9_EET_T0_l, symObjAddr: 0x49D0, symBinAddr: 0x100030C18, symSize: 0x474 }
  - { offset: 0x1A1D92, size: 0x8, addend: 0x0, symName: __ZN6fuzzer18MutationDispatcherC2ERNS_6RandomERKNS_14FuzzingOptionsE, symObjAddr: 0x0, symBinAddr: 0x10002C574, symSize: 0x360 }
  - { offset: 0x1A25CA, size: 0x8, addend: 0x0, symName: __ZNSt3__16vectorIN6fuzzer18MutationDispatcher7MutatorENS_9allocatorIS3_EEE18__insert_with_sizeB8nn210108IPKS3_S9_EENS_11__wrap_iterIPS3_EENSA_IS9_EET_T0_l, symObjAddr: 0x49D0, symBinAddr: 0x100030C18, symSize: 0x474 }
  - { offset: 0x1A30FB, size: 0x8, addend: 0x0, symName: __ZNSt3__16vectorIN6fuzzer18MutationDispatcher7MutatorENS_9allocatorIS3_EEE20__throw_length_errorB8nn210108Ev, symObjAddr: 0x4E44, symBinAddr: 0x10003108C, symSize: 0x14 }
  - { offset: 0x1A3118, size: 0x8, addend: 0x0, symName: __ZNSt3__16vectorIN6fuzzer18MutationDispatcher7MutatorENS_9allocatorIS3_EEE9push_backB8nn210108EOS3_, symObjAddr: 0x12CC, symBinAddr: 0x10002D840, symSize: 0x130 }
  - { offset: 0x1A353A, size: 0x8, addend: 0x0, symName: __ZN6fuzzer18MutationDispatcher22Mutate_AddWordFromTORCEPhmm, symObjAddr: 0x13FC, symBinAddr: 0x10002D970, symSize: 0x41C }
  - { offset: 0x1A3545, size: 0x8, addend: 0x0, symName: __ZNSt3__16vectorIN6fuzzer18MutationDispatcher7MutatorENS_9allocatorIS3_EEE18__assign_with_sizeB8nn210108IPS3_S8_EEvT_T0_l, symObjAddr: 0x4E58, symBinAddr: 0x1000310A0, symSize: 0x180 }
  - { offset: 0x1A3F98, size: 0x8, addend: 0x0, symName: __ZNSt3__16vectorIhNS_9allocatorIhEEE8__appendEm, symObjAddr: 0x4FD8, symBinAddr: 0x100031220, symSize: 0x220 }
  - { offset: 0x1A4084, size: 0x8, addend: 0x0, symName: __ZN6fuzzer18MutationDispatcher17Mutate_EraseBytesEPhmm, symObjAddr: 0x360, symBinAddr: 0x10002C8D4, symSize: 0xE4 }
  - { offset: 0x1A42C6, size: 0x8, addend: 0x0, symName: __ZN6fuzzer18MutationDispatcher17Mutate_InsertByteEPhmm, symObjAddr: 0x444, symBinAddr: 0x10002C9B8, symSize: 0xB8 }
  - { offset: 0x1A4466, size: 0x8, addend: 0x0, symName: __ZN6fuzzer18MutationDispatcher26Mutate_InsertRepeatedBytesEPhmm, symObjAddr: 0x4FC, symBinAddr: 0x10002CA70, symSize: 0x248 }
  - { offset: 0x1A47A2, size: 0x8, addend: 0x0, symName: __ZN6fuzzer18MutationDispatcher17Mutate_ChangeByteEPhmm, symObjAddr: 0x744, symBinAddr: 0x10002CCB8, symSize: 0xAC }
  - { offset: 0x1A4907, size: 0x8, addend: 0x0, symName: __ZN6fuzzer18MutationDispatcher16Mutate_ChangeBitEPhmm, symObjAddr: 0x7F0, symBinAddr: 0x10002CD64, symSize: 0xC0 }
  - { offset: 0x1A4C0A, size: 0x8, addend: 0x0, symName: __ZN6fuzzer18MutationDispatcher19Mutate_ShuffleBytesEPhmm, symObjAddr: 0x8B0, symBinAddr: 0x10002CE24, symSize: 0x140 }
  - { offset: 0x1A512F, size: 0x8, addend: 0x0, symName: __ZN6fuzzer18MutationDispatcher25Mutate_ChangeASCIIIntegerEPhmm, symObjAddr: 0x9F0, symBinAddr: 0x10002CF64, symSize: 0x238 }
  - { offset: 0x1A5518, size: 0x8, addend: 0x0, symName: __ZN6fuzzer18MutationDispatcher26Mutate_ChangeBinaryIntegerEPhmm, symObjAddr: 0xC28, symBinAddr: 0x10002D19C, symSize: 0xC8 }
  - { offset: 0x1A56F5, size: 0x8, addend: 0x0, symName: __ZN6fuzzer18MutationDispatcher15Mutate_CopyPartEPhmm, symObjAddr: 0xCF0, symBinAddr: 0x10002D264, symSize: 0x174 }
  - { offset: 0x1A5ACC, size: 0x8, addend: 0x0, symName: __ZN6fuzzer18MutationDispatcher12InsertPartOfEPKhmPhmm, symObjAddr: 0x2D78, symBinAddr: 0x10002F2EC, symSize: 0x1E8 }
  - { offset: 0x1A6027, size: 0x8, addend: 0x0, symName: __ZN6fuzzer18MutationDispatcher16Mutate_CrossOverEPhmm, symObjAddr: 0xE64, symBinAddr: 0x10002D3D8, symSize: 0x2CC }
  - { offset: 0x1A65EC, size: 0x8, addend: 0x0, symName: __ZNSt3__16vectorIhNS_9allocatorIhEEE8__appendEm, symObjAddr: 0x4FD8, symBinAddr: 0x100031220, symSize: 0x220 }
  - { offset: 0x1A6A45, size: 0x8, addend: 0x0, symName: __ZN6fuzzer18MutationDispatcher10CopyPartOfEPKhmPhm, symObjAddr: 0x2C48, symBinAddr: 0x10002F1BC, symSize: 0x130 }
  - { offset: 0x1A6DE9, size: 0x8, addend: 0x0, symName: __ZN6fuzzer18MutationDispatcher34Mutate_AddWordFromManualDictionaryEPhmm, symObjAddr: 0x1130, symBinAddr: 0x10002D6A4, symSize: 0xCC }
  - { offset: 0x1A6FDD, size: 0x8, addend: 0x0, symName: __ZN6fuzzer18MutationDispatcher20ApplyDictionaryEntryEPhmmRNS_15DictionaryEntryE, symObjAddr: 0x1C6C, symBinAddr: 0x10002E1E0, symSize: 0x22C }
  - { offset: 0x1A7499, size: 0x8, addend: 0x0, symName: __ZNSt3__16vectorIPN6fuzzer15DictionaryEntryENS_9allocatorIS3_EEE9push_backB8nn210108EOS3_, symObjAddr: 0x2B50, symBinAddr: 0x10002F0C4, symSize: 0xF8 }
  - { offset: 0x1A78BE, size: 0x8, addend: 0x0, symName: __ZN6fuzzer18MutationDispatcher10CopyPartOfEPKhmPhm, symObjAddr: 0x2C48, symBinAddr: 0x10002F1BC, symSize: 0x130 }
  - { offset: 0x1A78C9, size: 0x8, addend: 0x0, symName: __ZN6fuzzer18MutationDispatcher42Mutate_AddWordFromPersistentAutoDictionaryEPhmm, symObjAddr: 0x11FC, symBinAddr: 0x10002D770, symSize: 0xD0 }
  - { offset: 0x1A7E24, size: 0x8, addend: 0x0, symName: __ZNSt3__16vectorIN6fuzzer18MutationDispatcher7MutatorENS_9allocatorIS3_EEE20__throw_length_errorB8nn210108Ev, symObjAddr: 0x4E44, symBinAddr: 0x10003108C, symSize: 0x14 }
  - { offset: 0x1A7E3C, size: 0x8, addend: 0x0, symName: __ZNSt3__16vectorIN6fuzzer18MutationDispatcher7MutatorENS_9allocatorIS3_EEE18__assign_with_sizeB8nn210108IPS3_S8_EEvT_T0_l, symObjAddr: 0x4E58, symBinAddr: 0x1000310A0, symSize: 0x180 }
  - { offset: 0x1A7F8D, size: 0x8, addend: 0x0, symName: __ZN6fuzzer18MutationDispatcher22Mutate_AddWordFromTORCEPhmm, symObjAddr: 0x13FC, symBinAddr: 0x10002D970, symSize: 0x41C }
  - { offset: 0x1A87DD, size: 0x8, addend: 0x0, symName: __ZN6fuzzer18MutationDispatcher26MakeDictionaryEntryFromCMPIjEENS_15DictionaryEntryET_S3_PKhm, symObjAddr: 0x29FC, symBinAddr: 0x10002EF70, symSize: 0x154 }
  - { offset: 0x1A8C3A, size: 0x8, addend: 0x0, symName: __ZN6fuzzer18MutationDispatcher26MakeDictionaryEntryFromCMPIyEENS_15DictionaryEntryET_S3_PKhm, symObjAddr: 0x2754, symBinAddr: 0x10002ECC8, symSize: 0x154 }
  - { offset: 0x1A9096, size: 0x8, addend: 0x0, symName: __ZN6fuzzer18MutationDispatcher26MakeDictionaryEntryFromCMPEPKvS2_S2_S2_mPKhm, symObjAddr: 0x1E98, symBinAddr: 0x10002E40C, symSize: 0x89C }
  - { offset: 0x1A984A, size: 0x8, addend: 0x0, symName: __ZN6fuzzer18MutationDispatcher26MakeDictionaryEntryFromCMPItEENS_15DictionaryEntryET_S3_PKhm, symObjAddr: 0x28A8, symBinAddr: 0x10002EE1C, symSize: 0x154 }
  - { offset: 0x1A9CB3, size: 0x8, addend: 0x0, symName: __ZN6fuzzer18MutationDispatcher13Mutate_CustomEPhmm, symObjAddr: 0x1818, symBinAddr: 0x10002DD8C, symSize: 0xC4 }
  - { offset: 0x1A9DEF, size: 0x8, addend: 0x0, symName: __ZN6fuzzer18MutationDispatcher22Mutate_CustomCrossOverEPhmm, symObjAddr: 0x18DC, symBinAddr: 0x10002DE50, symSize: 0x1C8 }
  - { offset: 0x1AA163, size: 0x8, addend: 0x0, symName: __ZN6fuzzer18MutationDispatcherC1ERNS_6RandomERKNS_14FuzzingOptionsE, symObjAddr: 0x1AA4, symBinAddr: 0x10002E018, symSize: 0x4 }
  - { offset: 0x1AA1AD, size: 0x8, addend: 0x0, symName: __ZN6fuzzer18MutationDispatcherC1ERNS_6RandomERKNS_14FuzzingOptionsE, symObjAddr: 0x1AA4, symBinAddr: 0x10002E018, symSize: 0x4 }
  - { offset: 0x1AA1CE, size: 0x8, addend: 0x0, symName: __ZN6fuzzer18MutationDispatcher21AddWordFromDictionaryERNS_10DictionaryEPhmm, symObjAddr: 0x1B98, symBinAddr: 0x10002E10C, symSize: 0xD4 }
  - { offset: 0x1AA442, size: 0x8, addend: 0x0, symName: __ZN6fuzzer18MutationDispatcher26MakeDictionaryEntryFromCMPERKNS_9FixedWordILm64EEES4_PKhm, symObjAddr: 0x2734, symBinAddr: 0x10002ECA8, symSize: 0x20 }
  - { offset: 0x1AA890, size: 0x8, addend: 0x0, symName: __ZNSt3__16vectorIPN6fuzzer15DictionaryEntryENS_9allocatorIS3_EEE20__throw_length_errorB8nn210108Ev, symObjAddr: 0x55B4, symBinAddr: 0x100031440, symSize: 0x14 }
  - { offset: 0x1AA8A8, size: 0x8, addend: 0x0, symName: __ZNSt3__16vectorIN6fuzzer15DictionaryEntryENS_9allocatorIS2_EEE20__throw_length_errorB8nn210108Ev, symObjAddr: 0x55C8, symBinAddr: 0x100031454, symSize: 0x14 }
  - { offset: 0x1AA951, size: 0x8, addend: 0x0, symName: __ZN6fuzzer18MutationDispatcher21StartMutationSequenceEv, symObjAddr: 0x37E4, symBinAddr: 0x10002FD58, symSize: 0x18 }
  - { offset: 0x1AAB67, size: 0x8, addend: 0x0, symName: __ZN6fuzzer18MutationDispatcher32RecordSuccessfulMutationSequenceEv, symObjAddr: 0x37FC, symBinAddr: 0x10002FD70, symSize: 0x130 }
  - { offset: 0x1AB16D, size: 0x8, addend: 0x0, symName: __ZN6fuzzer18MutationDispatcher26PrintRecommendedDictionaryEv, symObjAddr: 0x392C, symBinAddr: 0x10002FEA0, symSize: 0x268 }
  - { offset: 0x1AB878, size: 0x8, addend: 0x0, symName: __ZN6fuzzer18MutationDispatcher21PrintMutationSequenceEb, symObjAddr: 0x3B94, symBinAddr: 0x100030108, symSize: 0x134 }
  - { offset: 0x1AB883, size: 0x8, addend: 0x0, symName: __ZNSt3__16vectorIN6fuzzer15DictionaryEntryENS_9allocatorIS2_EEE20__throw_length_errorB8nn210108Ev, symObjAddr: 0x55C8, symBinAddr: 0x100031454, symSize: 0x14 }
  - { offset: 0x1AB8FC, size: 0x8, addend: 0x0, symName: __ZN6fuzzer18MutationDispatcher21PrintMutationSequenceEb, symObjAddr: 0x3B94, symBinAddr: 0x100030108, symSize: 0x134 }
  - { offset: 0x1ABB74, size: 0x8, addend: 0x0, symName: __ZN6fuzzer18MutationDispatcher16MutationSequenceEv, symObjAddr: 0x3CC8, symBinAddr: 0x10003023C, symSize: 0x6C }
  - { offset: 0x1ABD60, size: 0x8, addend: 0x0, symName: __ZN6fuzzer18MutationDispatcher6MutateEPhmm, symObjAddr: 0x3D34, symBinAddr: 0x1000302A8, symSize: 0x154 }
  - { offset: 0x1ABF72, size: 0x8, addend: 0x0, symName: __ZNSt3__16vectorIN6fuzzer18MutationDispatcher7MutatorENS_9allocatorIS3_EEE9push_backB8nn210108ERKS3_, symObjAddr: 0x412C, symBinAddr: 0x1000306A0, symSize: 0x130 }
  - { offset: 0x1AC394, size: 0x8, addend: 0x0, symName: __ZN6fuzzer18MutationDispatcher14MutateWithMaskEPhmmRKNSt3__16vectorIhNS2_9allocatorIhEEEE, symObjAddr: 0x425C, symBinAddr: 0x1000307D0, symSize: 0x3D4 }
  - { offset: 0x1AC39F, size: 0x8, addend: 0x0, symName: __ZN6fuzzer18MutationDispatcher10MutateImplEPhmmRNSt3__16vectorINS0_7MutatorENS2_9allocatorIS4_EEEE, symObjAddr: 0x3E88, symBinAddr: 0x1000303FC, symSize: 0x150 }
  - { offset: 0x1AC577, size: 0x8, addend: 0x0, symName: __ZN6fuzzer18MutationDispatcher13DefaultMutateEPhmm, symObjAddr: 0x3FD8, symBinAddr: 0x10003054C, symSize: 0x154 }
  - { offset: 0x1AC907, size: 0x8, addend: 0x0, symName: __ZN6fuzzer18MutationDispatcher14MutateWithMaskEPhmmRKNSt3__16vectorIhNS2_9allocatorIhEEEE, symObjAddr: 0x425C, symBinAddr: 0x1000307D0, symSize: 0x3D4 }
  - { offset: 0x1ACAF5, size: 0x8, addend: 0x0, symName: __ZN6fuzzer18MutationDispatcher25AddWordToManualDictionaryERKNS_9FixedWordILm64EEE, symObjAddr: 0x4630, symBinAddr: 0x100030BA4, symSize: 0x74 }
  - { offset: 0x1AF644, size: 0x8, addend: 0x0, symName: __ZN6fuzzer11ComputeSHA1EPKhmPh, symObjAddr: 0x0, symBinAddr: 0x100031468, symSize: 0x15C }
  - { offset: 0x1AF664, size: 0x8, addend: 0x0, symName: __ZN6fuzzer11ComputeSHA1EPKhmPh, symObjAddr: 0x0, symBinAddr: 0x100031468, symSize: 0x15C }
  - { offset: 0x1AF881, size: 0x8, addend: 0x0, symName: __ZN6fuzzer12Sha1ToStringEPKh, symObjAddr: 0x15C, symBinAddr: 0x1000315C4, symSize: 0x2C8 }
  - { offset: 0x1AFE57, size: 0x8, addend: 0x0, symName: __ZN6fuzzer4HashERKNSt3__16vectorIhNS0_9allocatorIhEEEE, symObjAddr: 0x424, symBinAddr: 0x10003188C, symSize: 0x50 }
  - { offset: 0x1B4A2B, size: 0x8, addend: 0x0, symName: __ZN12_GLOBAL__N_117sha1_addUncountedEPNS_7sha1nfoEj, symObjAddr: 0x474, symBinAddr: 0x1000318DC, symSize: 0x174 }
  - { offset: 0x1B709A, size: 0x8, addend: 0x0, symName: ___sancov_lowest_stack, symObjAddr: 0x3330, symBinAddr: 0x100044510, symSize: 0x0 }
  - { offset: 0x1B70BD, size: 0x8, addend: 0x0, symName: __ZN6fuzzer3TPCE, symObjAddr: 0x54E00, symBinAddr: 0x100044800, symSize: 0x0 }
  - { offset: 0x1B79A9, size: 0x8, addend: 0x0, symName: __ZN6fuzzer34WarnAboutDeprecatedInstrumentationEPKc, symObjAddr: 0x1DD8, symBinAddr: 0x100033828, symSize: 0x20 }
  - { offset: 0x1B79EE, size: 0x8, addend: 0x0, symName: ___sanitizer_cov_trace_pc_guard, symObjAddr: 0x1DF8, symBinAddr: 0x100033848, symSize: 0x28 }
  - { offset: 0x1BE8A8, size: 0x8, addend: 0x0, symName: __ZNSt3__112__hash_tableINS_17__hash_value_typeImmEENS_22__unordered_map_hasherImNS_4pairIKmmEENS_4hashImEENS_8equal_toImEELb1EEENS_21__unordered_map_equalImS6_SA_S8_Lb1EEENS_9allocatorIS6_EEE11__do_rehashILb1EEEvm, symObjAddr: 0x3094, symBinAddr: 0x100034A88, symSize: 0x1CC }
  - { offset: 0x1BF10D, size: 0x8, addend: 0x0, symName: __ZN6fuzzer7TracePCD1Ev, symObjAddr: 0x0, symBinAddr: 0x100031A50, symSize: 0x70 }
  - { offset: 0x1BF511, size: 0x8, addend: 0x0, symName: __ZN6fuzzer7TracePC18GetTotalPCCoverageEv, symObjAddr: 0x70, symBinAddr: 0x100031AC0, symSize: 0xC }
  - { offset: 0x1BF53C, size: 0x8, addend: 0x0, symName: __ZN6fuzzer7TracePC18GetTotalPCCoverageEv, symObjAddr: 0x70, symBinAddr: 0x100031AC0, symSize: 0xC }
  - { offset: 0x1BF59A, size: 0x8, addend: 0x0, symName: __ZN6fuzzer7TracePC28HandleInline8bitCountersInitEPhS1_, symObjAddr: 0x7C, symBinAddr: 0x100031ACC, symSize: 0x1A8 }
  - { offset: 0x1BF765, size: 0x8, addend: 0x0, symName: __ZN6fuzzer7TracePC13HandlePCsInitEPKmS2_, symObjAddr: 0x224, symBinAddr: 0x100031C74, symSize: 0x48 }
  - { offset: 0x1BF79E, size: 0x8, addend: 0x0, symName: __ZN6fuzzer7TracePC15PrintModuleInfoEv, symObjAddr: 0x26C, symBinAddr: 0x100031CBC, symSize: 0x1A8 }
  - { offset: 0x1BF96B, size: 0x8, addend: 0x0, symName: '__ZNK6fuzzer7TracePC15CollectFeaturesIZNS0_15PrintModuleInfoEvE3$_0EEmT_', symObjAddr: 0x414, symBinAddr: 0x100031E64, symSize: 0xF4 }
  - { offset: 0x1BF97C, size: 0x8, addend: 0x0, symName: '__ZNK6fuzzer7TracePC15CollectFeaturesIZNS0_15PrintModuleInfoEvE3$_0EEmT_', symObjAddr: 0x414, symBinAddr: 0x100031E64, symSize: 0xF4 }
  - { offset: 0x1BFBDA, size: 0x8, addend: 0x0, symName: __ZN6fuzzer7TracePC18HandleCallerCalleeEmm, symObjAddr: 0x508, symBinAddr: 0x100031F58, symSize: 0x4C }
  - { offset: 0x1BFC67, size: 0x8, addend: 0x0, symName: __ZN6fuzzer7TracePC20GetNextInstructionPcEm, symObjAddr: 0x554, symBinAddr: 0x100031FA4, symSize: 0x8 }
  - { offset: 0x1BFCA3, size: 0x8, addend: 0x0, symName: __ZN6fuzzer7TracePC17UpdateObservedPCsEv, symObjAddr: 0x55C, symBinAddr: 0x100031FAC, symSize: 0x5F8 }
  - { offset: 0x1C088F, size: 0x8, addend: 0x0, symName: __ZN6fuzzer7TracePC15PCTableEntryIdxEPKNS0_12PCTableEntryE, symObjAddr: 0xB54, symBinAddr: 0x1000325A4, symSize: 0x54 }
  - { offset: 0x1C1022, size: 0x8, addend: 0x0, symName: __ZNSt3__112__hash_tableINS_17__hash_value_typeImmEENS_22__unordered_map_hasherImNS_4pairIKmmEENS_4hashImEENS_8equal_toImEELb1EEENS_21__unordered_map_equalImS6_SA_S8_Lb1EEENS_9allocatorIS6_EEE25__emplace_unique_key_argsImJRKNS_21piecewise_construct_tENS_5tupleIJRS5_EEENSL_IJEEEEEENS4_INS_15__hash_iteratorIPNS_11__hash_nodeIS2_PvEEEEbEERKT_DpOT0_, symObjAddr: 0x2D5C, symBinAddr: 0x100034764, symSize: 0x324 }
  - { offset: 0x1C166C, size: 0x8, addend: 0x0, symName: __ZN6fuzzer7TracePC15PCTableEntryIdxEPKNS0_12PCTableEntryE, symObjAddr: 0xB54, symBinAddr: 0x1000325A4, symSize: 0x54 }
  - { offset: 0x1C16D9, size: 0x8, addend: 0x0, symName: __ZN6fuzzer7TracePC17PCTableEntryByIdxEm, symObjAddr: 0xBA8, symBinAddr: 0x1000325F8, symSize: 0x48 }
  - { offset: 0x1C1C27, size: 0x8, addend: 0x0, symName: __ZN6fuzzer7TracePC16SetFocusFunctionERKNSt3__112basic_stringIcNS1_11char_traitsIcEENS1_9allocatorIcEEEE, symObjAddr: 0xBF0, symBinAddr: 0x100032640, symSize: 0x384 }
  - { offset: 0x1C26D1, size: 0x8, addend: 0x0, symName: __ZN6fuzzer7TracePC21ObservedFocusFunctionEv, symObjAddr: 0xF74, symBinAddr: 0x1000329C4, symSize: 0x24 }
  - { offset: 0x1C2737, size: 0x8, addend: 0x0, symName: __ZTW21__sancov_lowest_stack, symObjAddr: 0x32D4, symBinAddr: 0x100034C54, symSize: 0x20 }
  - { offset: 0x1C2742, size: 0x8, addend: 0x0, symName: __ZN6fuzzer7TracePC21ObservedFocusFunctionEv, symObjAddr: 0xF74, symBinAddr: 0x1000329C4, symSize: 0x24 }
  - { offset: 0x1C276B, size: 0x8, addend: 0x0, symName: __ZN6fuzzer7TracePC13PrintCoverageEb, symObjAddr: 0xF98, symBinAddr: 0x1000329E8, symSize: 0xA58 }
  - { offset: 0x1C4A41, size: 0x8, addend: 0x0, symName: __ZN6fuzzer7TracePC17AddValueForMemcmpEPvPKvS3_mb, symObjAddr: 0x19F0, symBinAddr: 0x100033440, symSize: 0x2C4 }
  - { offset: 0x1C4E24, size: 0x8, addend: 0x0, symName: __ZN6fuzzer7TracePC17AddValueForMemcmpEPvPKvS3_mb, symObjAddr: 0x19F0, symBinAddr: 0x100033440, symSize: 0x2C4 }
  - { offset: 0x1C5167, size: 0x8, addend: 0x0, symName: __ZN6fuzzer7TracePC19ClearInlineCountersEv, symObjAddr: 0x1CB4, symBinAddr: 0x100033704, symSize: 0xB8 }
  - { offset: 0x1C52D7, size: 0x8, addend: 0x0, symName: __ZN6fuzzer7TracePC18RecordInitialStackEv, symObjAddr: 0x1D6C, symBinAddr: 0x1000337BC, symSize: 0x3C }
  - { offset: 0x1C531E, size: 0x8, addend: 0x0, symName: __ZNK6fuzzer7TracePC17GetMaxStackOffsetEv, symObjAddr: 0x1DA8, symBinAddr: 0x1000337F8, symSize: 0x30 }
  - { offset: 0x1C534C, size: 0x8, addend: 0x0, symName: ___sanitizer_cov_trace_pc_guard, symObjAddr: 0x1DF8, symBinAddr: 0x100033848, symSize: 0x28 }
  - { offset: 0x1C53B4, size: 0x8, addend: 0x0, symName: ___sanitizer_cov_trace_pc, symObjAddr: 0x1E20, symBinAddr: 0x100033870, symSize: 0x28 }
  - { offset: 0x1C53C5, size: 0x8, addend: 0x0, symName: ___sanitizer_cov_trace_pc, symObjAddr: 0x1E20, symBinAddr: 0x100033870, symSize: 0x28 }
  - { offset: 0x1C541C, size: 0x8, addend: 0x0, symName: ___sanitizer_cov_trace_pc_guard_init, symObjAddr: 0x1E48, symBinAddr: 0x100033898, symSize: 0x28 }
  - { offset: 0x1C542D, size: 0x8, addend: 0x0, symName: ___sanitizer_cov_trace_pc_guard_init, symObjAddr: 0x1E48, symBinAddr: 0x100033898, symSize: 0x28 }
  - { offset: 0x1C54A6, size: 0x8, addend: 0x0, symName: ___sanitizer_cov_8bit_counters_init, symObjAddr: 0x1E70, symBinAddr: 0x1000338C0, symSize: 0x14 }
  - { offset: 0x1C54B7, size: 0x8, addend: 0x0, symName: ___sanitizer_cov_8bit_counters_init, symObjAddr: 0x1E70, symBinAddr: 0x1000338C0, symSize: 0x14 }
  - { offset: 0x1C5551, size: 0x8, addend: 0x0, symName: ___sanitizer_cov_pcs_init, symObjAddr: 0x1E84, symBinAddr: 0x1000338D4, symSize: 0x64 }
  - { offset: 0x1C558A, size: 0x8, addend: 0x0, symName: ___sanitizer_cov_pcs_init, symObjAddr: 0x1E84, symBinAddr: 0x1000338D4, symSize: 0x64 }
  - { offset: 0x1C560A, size: 0x8, addend: 0x0, symName: ___sanitizer_cov_trace_pc_indir, symObjAddr: 0x1EE8, symBinAddr: 0x100033938, symSize: 0x60 }
  - { offset: 0x1C5786, size: 0x8, addend: 0x0, symName: ___sanitizer_cov_trace_cmp8, symObjAddr: 0x1F48, symBinAddr: 0x100033998, symSize: 0x88 }
  - { offset: 0x1C58D1, size: 0x8, addend: 0x0, symName: ___sanitizer_cov_trace_const_cmp8, symObjAddr: 0x1FD0, symBinAddr: 0x100033A20, symSize: 0x88 }
  - { offset: 0x1C5AC1, size: 0x8, addend: 0x0, symName: ___sanitizer_cov_trace_cmp4, symObjAddr: 0x2058, symBinAddr: 0x100033AA8, symSize: 0x84 }
  - { offset: 0x1C5BF9, size: 0x8, addend: 0x0, symName: ___sanitizer_cov_trace_const_cmp4, symObjAddr: 0x20DC, symBinAddr: 0x100033B2C, symSize: 0x84 }
  - { offset: 0x1C5D9C, size: 0x8, addend: 0x0, symName: ___sanitizer_cov_trace_cmp2, symObjAddr: 0x2160, symBinAddr: 0x100033BB0, symSize: 0x70 }
  - { offset: 0x1C5EBC, size: 0x8, addend: 0x0, symName: ___sanitizer_cov_trace_const_cmp2, symObjAddr: 0x21D0, symBinAddr: 0x100033C20, symSize: 0x70 }
  - { offset: 0x1C6047, size: 0x8, addend: 0x0, symName: ___sanitizer_cov_trace_cmp1, symObjAddr: 0x2240, symBinAddr: 0x100033C90, symSize: 0x70 }
  - { offset: 0x1C6167, size: 0x8, addend: 0x0, symName: ___sanitizer_cov_trace_const_cmp1, symObjAddr: 0x22B0, symBinAddr: 0x100033D00, symSize: 0x70 }
  - { offset: 0x1C6287, size: 0x8, addend: 0x0, symName: ___sanitizer_cov_trace_switch, symObjAddr: 0x2320, symBinAddr: 0x100033D70, symSize: 0x2C4 }
  - { offset: 0x1C67A4, size: 0x8, addend: 0x0, symName: ___sanitizer_cov_trace_div4, symObjAddr: 0x25E4, symBinAddr: 0x100034034, symSize: 0x80 }
  - { offset: 0x1C68CC, size: 0x8, addend: 0x0, symName: ___sanitizer_cov_trace_div8, symObjAddr: 0x2664, symBinAddr: 0x1000340B4, symSize: 0x84 }
  - { offset: 0x1C6A77, size: 0x8, addend: 0x0, symName: ___sanitizer_cov_trace_gep, symObjAddr: 0x26E8, symBinAddr: 0x100034138, symSize: 0x84 }
  - { offset: 0x1C6BB7, size: 0x8, addend: 0x0, symName: ___sanitizer_weak_hook_memcmp, symObjAddr: 0x276C, symBinAddr: 0x1000341BC, symSize: 0x44 }
  - { offset: 0x1C6C38, size: 0x8, addend: 0x0, symName: ___sanitizer_weak_hook_strncmp, symObjAddr: 0x27B0, symBinAddr: 0x100034200, symSize: 0xA8 }
  - { offset: 0x1C6CFB, size: 0x8, addend: 0x0, symName: ___sanitizer_weak_hook_strcmp, symObjAddr: 0x2858, symBinAddr: 0x1000342A8, symSize: 0x74 }
  - { offset: 0x1C6DE5, size: 0x8, addend: 0x0, symName: ___sanitizer_weak_hook_strncasecmp, symObjAddr: 0x28CC, symBinAddr: 0x10003431C, symSize: 0xA8 }
  - { offset: 0x1C6F37, size: 0x8, addend: 0x0, symName: ___sanitizer_weak_hook_strcasecmp, symObjAddr: 0x2974, symBinAddr: 0x1000343C4, symSize: 0x74 }
  - { offset: 0x1C7027, size: 0x8, addend: 0x0, symName: ___sanitizer_weak_hook_strstr, symObjAddr: 0x29E8, symBinAddr: 0x100034438, symSize: 0x94 }
  - { offset: 0x1C712A, size: 0x8, addend: 0x0, symName: ___sanitizer_weak_hook_strcasestr, symObjAddr: 0x2A7C, symBinAddr: 0x1000344CC, symSize: 0x94 }
  - { offset: 0x1C722D, size: 0x8, addend: 0x0, symName: ___sanitizer_weak_hook_memmem, symObjAddr: 0x2B10, symBinAddr: 0x100034560, symSize: 0x88 }
  - { offset: 0x1C75B1, size: 0x8, addend: 0x0, symName: __ZN6fuzzer7TracePCC2Ev, symObjAddr: 0x2B98, symBinAddr: 0x1000345E8, symSize: 0x17C }
  - { offset: 0x1C7DB5, size: 0x8, addend: 0x0, symName: __ZNSt3__112__hash_tableINS_17__hash_value_typeImmEENS_22__unordered_map_hasherImNS_4pairIKmmEENS_4hashImEENS_8equal_toImEELb1EEENS_21__unordered_map_equalImS6_SA_S8_Lb1EEENS_9allocatorIS6_EEE11__do_rehashILb1EEEvm, symObjAddr: 0x3094, symBinAddr: 0x100034A88, symSize: 0x1CC }
  - { offset: 0x1C81F4, size: 0x8, addend: 0x0, symName: __GLOBAL__sub_I_FuzzerTracePC.cpp, symObjAddr: 0x32F4, symBinAddr: 0x100034C74, symSize: 0x3C }
  - { offset: 0x1CA0EC, size: 0x8, addend: 0x0, symName: __ZN6fuzzer6Base64ERKNSt3__16vectorIhNS0_9allocatorIhEEEE, symObjAddr: 0x1040, symBinAddr: 0x100035A24, symSize: 0x23C }
  - { offset: 0x1CA5D0, size: 0x8, addend: 0x0, symName: __ZN6fuzzerL14SymbolizeMutexE, symObjAddr: 0x1B18, symBinAddr: 0x100044158, symSize: 0x0 }
  - { offset: 0x1CA5DE, size: 0x8, addend: 0x0, symName: __ZN6fuzzer13PrintHexArrayEPKhmPKc, symObjAddr: 0x0, symBinAddr: 0x100034CB0, symSize: 0x68 }
  - { offset: 0x1CA69C, size: 0x8, addend: 0x0, symName: __ZN6fuzzer5PrintERKNSt3__16vectorIhNS0_9allocatorIhEEEEPKc, symObjAddr: 0x68, symBinAddr: 0x100034D18, symSize: 0x68 }
  - { offset: 0x1CA778, size: 0x8, addend: 0x0, symName: __ZN6fuzzer14PrintASCIIByteEh, symObjAddr: 0xD0, symBinAddr: 0x100034D80, symSize: 0x88 }
  - { offset: 0x1CA7E7, size: 0x8, addend: 0x0, symName: __ZN6fuzzer10PrintASCIIEPKhmPKc, symObjAddr: 0x158, symBinAddr: 0x100034E08, symSize: 0xCC }
  - { offset: 0x1CA8A2, size: 0x8, addend: 0x0, symName: __ZN6fuzzer10PrintASCIIERKNSt3__16vectorIhNS0_9allocatorIhEEEEPKc, symObjAddr: 0x224, symBinAddr: 0x100034ED4, symSize: 0xCC }
  - { offset: 0x1CA98D, size: 0x8, addend: 0x0, symName: __ZN6fuzzer7ToASCIIEPhm, symObjAddr: 0x2F0, symBinAddr: 0x100034FA0, symSize: 0x54 }
  - { offset: 0x1CAA91, size: 0x8, addend: 0x0, symName: __ZN6fuzzer7IsASCIIERKNSt3__16vectorIhNS0_9allocatorIhEEEE, symObjAddr: 0x344, symBinAddr: 0x100034FF4, symSize: 0xA0 }
  - { offset: 0x1CABB6, size: 0x8, addend: 0x0, symName: __ZN6fuzzer7IsASCIIEPKhm, symObjAddr: 0x3E4, symBinAddr: 0x100035094, symSize: 0xA8 }
  - { offset: 0x1CABDC, size: 0x8, addend: 0x0, symName: __ZN6fuzzer7IsASCIIEPKhm, symObjAddr: 0x3E4, symBinAddr: 0x100035094, symSize: 0xA8 }
  - { offset: 0x1CAC71, size: 0x8, addend: 0x0, symName: __ZN6fuzzer23ParseOneDictionaryEntryERKNSt3__112basic_stringIcNS0_11char_traitsIcEENS0_9allocatorIcEEEEPNS0_6vectorIhNS4_IhEEEE, symObjAddr: 0x48C, symBinAddr: 0x10003513C, symSize: 0x4DC }
  - { offset: 0x1CBB98, size: 0x8, addend: 0x0, symName: __ZN6fuzzer19ParseDictionaryFileERKNSt3__112basic_stringIcNS0_11char_traitsIcEENS0_9allocatorIcEEEEPNS0_6vectorINS9_IhNS4_IhEEEENS4_ISB_EEEE, symObjAddr: 0x968, symBinAddr: 0x100035618, symSize: 0x40C }
  - { offset: 0x1CBBA3, size: 0x8, addend: 0x0, symName: __ZN6fuzzer19ParseDictionaryFileERKNSt3__112basic_stringIcNS0_11char_traitsIcEENS0_9allocatorIcEEEEPNS0_6vectorINS9_IhNS4_IhEEEENS4_ISB_EEEE, symObjAddr: 0x968, symBinAddr: 0x100035618, symSize: 0x40C }
  - { offset: 0x1CC9CB, size: 0x8, addend: 0x0, symName: __ZN6fuzzer10DescribePCEPKcm, symObjAddr: 0x127C, symBinAddr: 0x100035C60, symSize: 0x18C }
  - { offset: 0x1CCF84, size: 0x8, addend: 0x0, symName: __ZN6fuzzer7PrintPCEPKcS1_m, symObjAddr: 0x1408, symBinAddr: 0x100035DEC, symSize: 0xA8 }
  - { offset: 0x1CCF8F, size: 0x8, addend: 0x0, symName: __ZN6fuzzer7PrintPCEPKcS1_m, symObjAddr: 0x1408, symBinAddr: 0x100035DEC, symSize: 0xA8 }
  - { offset: 0x1CD18A, size: 0x8, addend: 0x0, symName: __ZN6fuzzer15PrintStackTraceEv, symObjAddr: 0x14B0, symBinAddr: 0x100035E94, symSize: 0x5C }
  - { offset: 0x1CD22A, size: 0x8, addend: 0x0, symName: __ZN6fuzzer18PrintMemoryProfileEv, symObjAddr: 0x150C, symBinAddr: 0x100035EF0, symSize: 0x64 }
  - { offset: 0x1CD2D6, size: 0x8, addend: 0x0, symName: __ZN6fuzzer16NumberOfCpuCoresEv, symObjAddr: 0x1570, symBinAddr: 0x100035F54, symSize: 0x30 }
  - { offset: 0x1CD313, size: 0x8, addend: 0x0, symName: __ZN6fuzzer14SimpleFastHashEPKvmy, symObjAddr: 0x15A0, symBinAddr: 0x100035F84, symSize: 0x20 }
  - { offset: 0x1CD37F, size: 0x8, addend: 0x0, symName: __ZN6fuzzer14SimpleFastHashEPKvmy, symObjAddr: 0x15A0, symBinAddr: 0x100035F84, symSize: 0x20 }
  - { offset: 0x1D6156, size: 0x8, addend: 0x0, symName: __GLOBAL__sub_I_FuzzerUtil.cpp, symObjAddr: 0x1930, symBinAddr: 0x100035FA4, symSize: 0x1C }
  - { offset: 0x1D616E, size: 0x8, addend: 0x0, symName: __GLOBAL__sub_I_FuzzerUtil.cpp, symObjAddr: 0x1930, symBinAddr: 0x100035FA4, symSize: 0x1C }
  - { offset: 0x1D8008, size: 0x8, addend: 0x0, symName: __ZN6fuzzerL11SignalMutexE, symObjAddr: 0xBB8, symBinAddr: 0x100044198, symSize: 0x0 }
  - { offset: 0x1D8016, size: 0x8, addend: 0x0, symName: __ZN6fuzzer14ExecuteCommandERKNS_7CommandE, symObjAddr: 0x0, symBinAddr: 0x100035FC0, symSize: 0x3CC }
  - { offset: 0x1D8040, size: 0x8, addend: 0x0, symName: __MergedGlobals, symObjAddr: 0x27450, symBinAddr: 0x100078458, symSize: 0x0 }
  - { offset: 0x1D86EA, size: 0x8, addend: 0x0, symName: __MergedGlobals, symObjAddr: 0x27450, symBinAddr: 0x100078458, symSize: 0x0 }
  - { offset: 0x1D8704, size: 0x8, addend: 0x0, symName: __MergedGlobals, symObjAddr: 0x27450, symBinAddr: 0x100078458, symSize: 0x0 }
  - { offset: 0x1D8720, size: 0x8, addend: 0x0, symName: __MergedGlobals, symObjAddr: 0x27450, symBinAddr: 0x100078458, symSize: 0x0 }
  - { offset: 0x1D873C, size: 0x8, addend: 0x0, symName: __MergedGlobals, symObjAddr: 0x27450, symBinAddr: 0x100078458, symSize: 0x0 }
  - { offset: 0x1D89B4, size: 0x8, addend: 0x0, symName: __ZN6fuzzer13DiscardOutputEi, symObjAddr: 0x7C4, symBinAddr: 0x10003638C, symSize: 0x54 }
  - { offset: 0x1D8A2E, size: 0x8, addend: 0x0, symName: __ZN6fuzzer13SetThreadNameERNSt3__16threadERKNS0_12basic_stringIcNS0_11char_traitsIcEENS0_9allocatorIcEEEE, symObjAddr: 0x818, symBinAddr: 0x1000363E0, symSize: 0x4 }
  - { offset: 0x1DD840, size: 0x8, addend: 0x0, symName: __GLOBAL__sub_I_FuzzerUtilDarwin.cpp, symObjAddr: 0xB9C, symBinAddr: 0x1000363E4, symSize: 0x1C }
  - { offset: 0x1DF25E, size: 0x8, addend: 0x0, symName: __ZN6fuzzer13DiscardOutputEi, symObjAddr: 0x7C4, symBinAddr: 0x10003638C, symSize: 0x54 }
  - { offset: 0x1DFF6E, size: 0x8, addend: 0x0, symName: __GLOBAL__sub_I_FuzzerUtilDarwin.cpp, symObjAddr: 0xB9C, symBinAddr: 0x1000363E4, symSize: 0x1C }
  - { offset: 0x1DFF86, size: 0x8, addend: 0x0, symName: __GLOBAL__sub_I_FuzzerUtilDarwin.cpp, symObjAddr: 0xB9C, symBinAddr: 0x1000363E4, symSize: 0x1C }
  - { offset: 0x1E1C59, size: 0x8, addend: 0x0, symName: __ZN6fuzzer14ExecuteCommandERKNS_7CommandEPNSt3__112basic_stringIcNS3_11char_traitsIcEENS3_9allocatorIcEEEE, symObjAddr: 0x0, symBinAddr: 0x100036400, symSize: 0xE0 }
  - { offset: 0x1E1C7F, size: 0x8, addend: 0x0, symName: __ZN6fuzzer8PageSizeEv, symObjAddr: 0x970, symBinAddr: 0x100036978, symSize: 0x60 }
  - { offset: 0x1E1CA9, size: 0x8, addend: 0x0, symName: __MergedGlobals, symObjAddr: 0x27228, symBinAddr: 0x100078498, symSize: 0x0 }
  - { offset: 0x1E1CD4, size: 0x8, addend: 0x0, symName: __ZN6fuzzerL21upstream_segv_handlerE, symObjAddr: 0x27220, symBinAddr: 0x100078490, symSize: 0x0 }
  - { offset: 0x1E1CE2, size: 0x8, addend: 0x0, symName: __ZN6fuzzer14ExecuteCommandERKNS_7CommandEPNSt3__112basic_stringIcNS3_11char_traitsIcEENS3_9allocatorIcEEEE, symObjAddr: 0x0, symBinAddr: 0x100036400, symSize: 0xE0 }
  - { offset: 0x1E2195, size: 0x8, addend: 0x0, symName: __ZN6fuzzer8SetTimerEi, symObjAddr: 0x4D8, symBinAddr: 0x1000364E0, symSize: 0x7C }
  - { offset: 0x1E220E, size: 0x8, addend: 0x0, symName: __ZN6fuzzerL12SetSigactionEiPFviP9__siginfoPvE, symObjAddr: 0x554, symBinAddr: 0x10003655C, symSize: 0xB0 }
  - { offset: 0x1E221F, size: 0x8, addend: 0x0, symName: __ZN6fuzzerL12SetSigactionEiPFviP9__siginfoPvE, symObjAddr: 0x554, symBinAddr: 0x10003655C, symSize: 0xB0 }
  - { offset: 0x1E22D8, size: 0x8, addend: 0x0, symName: __ZN6fuzzerL12AlarmHandlerEiP9__siginfoPv, symObjAddr: 0x604, symBinAddr: 0x10003660C, symSize: 0x4 }
  - { offset: 0x1E22FB, size: 0x8, addend: 0x0, symName: __ZN6fuzzerL12AlarmHandlerEiP9__siginfoPv, symObjAddr: 0x604, symBinAddr: 0x10003660C, symSize: 0x4 }
  - { offset: 0x1E2352, size: 0x8, addend: 0x0, symName: __ZN6fuzzer16SetSignalHandlerERKNS_14FuzzingOptionsE, symObjAddr: 0x608, symBinAddr: 0x100036610, symSize: 0x238 }
  - { offset: 0x1E24B6, size: 0x8, addend: 0x0, symName: __ZN6fuzzerL16InterruptHandlerEiP9__siginfoPv, symObjAddr: 0x840, symBinAddr: 0x100036848, symSize: 0x4 }
  - { offset: 0x1E24C7, size: 0x8, addend: 0x0, symName: __ZN6fuzzerL16InterruptHandlerEiP9__siginfoPv, symObjAddr: 0x840, symBinAddr: 0x100036848, symSize: 0x4 }
  - { offset: 0x1E24FA, size: 0x8, addend: 0x0, symName: __ZN6fuzzerL11SegvHandlerEiP9__siginfoPv, symObjAddr: 0x844, symBinAddr: 0x10003684C, symSize: 0x14 }
  - { offset: 0x1E254B, size: 0x8, addend: 0x0, symName: __ZN6fuzzerL12CrashHandlerEiP9__siginfoPv, symObjAddr: 0x858, symBinAddr: 0x100036860, symSize: 0x4 }
  - { offset: 0x1E257E, size: 0x8, addend: 0x0, symName: __ZN6fuzzerL21FileSizeExceedHandlerEiP9__siginfoPv, symObjAddr: 0x85C, symBinAddr: 0x100036864, symSize: 0x4 }
  - { offset: 0x1E25B1, size: 0x8, addend: 0x0, symName: __ZN6fuzzerL19GracefulExitHandlerEiP9__siginfoPv, symObjAddr: 0x860, symBinAddr: 0x100036868, symSize: 0x4 }
  - { offset: 0x1E25E4, size: 0x8, addend: 0x0, symName: __ZN6fuzzer12SleepSecondsEi, symObjAddr: 0x864, symBinAddr: 0x10003686C, symSize: 0x4 }
  - { offset: 0x1E2610, size: 0x8, addend: 0x0, symName: __ZN6fuzzer12SleepSecondsEi, symObjAddr: 0x864, symBinAddr: 0x10003686C, symSize: 0x4 }
  - { offset: 0x1E2623, size: 0x8, addend: 0x0, symName: __ZN6fuzzer6GetPidEv, symObjAddr: 0x868, symBinAddr: 0x100036870, symSize: 0x18 }
  - { offset: 0x1E2650, size: 0x8, addend: 0x0, symName: __ZN6fuzzer12GetPeakRSSMbEv, symObjAddr: 0x880, symBinAddr: 0x100036888, symSize: 0x4C }
  - { offset: 0x1E2698, size: 0x8, addend: 0x0, symName: __ZN6fuzzer15OpenProcessPipeEPKcS1_, symObjAddr: 0x8CC, symBinAddr: 0x1000368D4, symSize: 0x4 }
  - { offset: 0x1E26D6, size: 0x8, addend: 0x0, symName: __ZN6fuzzer15OpenProcessPipeEPKcS1_, symObjAddr: 0x8CC, symBinAddr: 0x1000368D4, symSize: 0x4 }
  - { offset: 0x1E26F0, size: 0x8, addend: 0x0, symName: __ZN6fuzzer16CloseProcessPipeEP7__sFILE, symObjAddr: 0x8D0, symBinAddr: 0x1000368D8, symSize: 0x4 }
  - { offset: 0x1E2720, size: 0x8, addend: 0x0, symName: __ZN6fuzzer16CloseProcessPipeEP7__sFILE, symObjAddr: 0x8D0, symBinAddr: 0x1000368D8, symSize: 0x4 }
  - { offset: 0x1E2733, size: 0x8, addend: 0x0, symName: __ZN6fuzzer12SearchMemoryEPKvmS1_m, symObjAddr: 0x8D4, symBinAddr: 0x1000368DC, symSize: 0x4 }
  - { offset: 0x1E278D, size: 0x8, addend: 0x0, symName: __ZN6fuzzer12SearchMemoryEPKvmS1_m, symObjAddr: 0x8D4, symBinAddr: 0x1000368DC, symSize: 0x4 }
  - { offset: 0x1E27B5, size: 0x8, addend: 0x0, symName: __ZN6fuzzer14DisassembleCmdERKNSt3__112basic_stringIcNS0_11char_traitsIcEENS0_9allocatorIcEEEE, symObjAddr: 0x8D8, symBinAddr: 0x1000368E0, symSize: 0x10 }
  - { offset: 0x1E2801, size: 0x8, addend: 0x0, symName: __ZN6fuzzer14SearchRegexCmdERKNSt3__112basic_stringIcNS0_11char_traitsIcEENS0_9allocatorIcEEEE, symObjAddr: 0x8E8, symBinAddr: 0x1000368F0, symSize: 0x88 }
  - { offset: 0x1E90AB, size: 0x8, addend: 0x0, symName: __ZN6fuzzer8SetTimerEi, symObjAddr: 0x4D8, symBinAddr: 0x1000364E0, symSize: 0x7C }
  - { offset: 0x1EBB59, size: 0x8, addend: 0x0, symName: _main, symObjAddr: 0x0, symBinAddr: 0x1000369D8, symSize: 0x34 }
  - { offset: 0x1EBB67, size: 0x8, addend: 0x0, symName: _main, symObjAddr: 0x0, symBinAddr: 0x1000369D8, symSize: 0x34 }
...
